
ConFLiCT.elf:     file format elf32-avr

Sections:
Idx Name          Size      VMA       LMA       File off  Algn
  0 .text         0000410c  00000000  00000000  000000b4  2**1
                  CONTENTS, ALLOC, LOAD, READONLY, CODE
  1 .data         00000064  00802000  0000410c  000041c0  2**0
                  CONTENTS, ALLOC, LOAD, DATA
  2 .bss          0000019c  00802064  00802064  00004224  2**0
                  ALLOC
  3 .eeprom       0000020c  00810000  00810000  00004224  2**0
                  CONTENTS, ALLOC, LOAD, DATA
  4 .stab         000014dc  00000000  00000000  00004430  2**2
                  CONTENTS, READONLY, DEBUGGING
  5 .stabstr      00000694  00000000  00000000  0000590c  2**0
                  CONTENTS, READONLY, DEBUGGING
  6 .comment      0000002f  00000000  00000000  00005fa0  2**0
                  CONTENTS, READONLY
  7 .debug_aranges 000002a0  00000000  00000000  00005fcf  2**0
                  CONTENTS, READONLY, DEBUGGING
  8 .debug_info   00004992  00000000  00000000  0000626f  2**0
                  CONTENTS, READONLY, DEBUGGING
  9 .debug_abbrev 0000111c  00000000  00000000  0000ac01  2**0
                  CONTENTS, READONLY, DEBUGGING
 10 .debug_line   0000208d  00000000  00000000  0000bd1d  2**0
                  CONTENTS, READONLY, DEBUGGING
 11 .debug_frame  00000750  00000000  00000000  0000ddac  2**2
                  CONTENTS, READONLY, DEBUGGING
 12 .debug_str    00001054  00000000  00000000  0000e4fc  2**0
                  CONTENTS, READONLY, DEBUGGING
 13 .debug_loc    00002873  00000000  00000000  0000f550  2**0
                  CONTENTS, READONLY, DEBUGGING
 14 .debug_ranges 00000248  00000000  00000000  00011dc3  2**0
                  CONTENTS, READONLY, DEBUGGING

Disassembly of section .text:

00000000 <__vectors>:
       0:	0c 94 13 03 	jmp	0x626	; 0x626 <__ctors_end>
       4:	0c 94 30 03 	jmp	0x660	; 0x660 <__bad_interrupt>
       8:	0c 94 30 03 	jmp	0x660	; 0x660 <__bad_interrupt>
       c:	0c 94 30 03 	jmp	0x660	; 0x660 <__bad_interrupt>
      10:	0c 94 30 03 	jmp	0x660	; 0x660 <__bad_interrupt>
      14:	0c 94 30 03 	jmp	0x660	; 0x660 <__bad_interrupt>
      18:	0c 94 30 03 	jmp	0x660	; 0x660 <__bad_interrupt>
      1c:	0c 94 30 03 	jmp	0x660	; 0x660 <__bad_interrupt>
      20:	0c 94 30 03 	jmp	0x660	; 0x660 <__bad_interrupt>
      24:	0c 94 30 03 	jmp	0x660	; 0x660 <__bad_interrupt>
      28:	0c 94 30 03 	jmp	0x660	; 0x660 <__bad_interrupt>
      2c:	0c 94 30 03 	jmp	0x660	; 0x660 <__bad_interrupt>
      30:	0c 94 30 03 	jmp	0x660	; 0x660 <__bad_interrupt>
      34:	0c 94 30 03 	jmp	0x660	; 0x660 <__bad_interrupt>
      38:	0c 94 af 1e 	jmp	0x3d5e	; 0x3d5e <__vector_14>
      3c:	0c 94 30 03 	jmp	0x660	; 0x660 <__bad_interrupt>
      40:	0c 94 cb 1d 	jmp	0x3b96	; 0x3b96 <__vector_16>
      44:	0c 94 01 1e 	jmp	0x3c02	; 0x3c02 <__vector_17>
      48:	0c 94 3b 1e 	jmp	0x3c76	; 0x3c76 <__vector_18>
      4c:	0c 94 75 1e 	jmp	0x3cea	; 0x3cea <__vector_19>
      50:	0c 94 e3 1e 	jmp	0x3dc6	; 0x3dc6 <__vector_20>
      54:	0c 94 30 03 	jmp	0x660	; 0x660 <__bad_interrupt>
      58:	0c 94 30 03 	jmp	0x660	; 0x660 <__bad_interrupt>
      5c:	0c 94 30 03 	jmp	0x660	; 0x660 <__bad_interrupt>
      60:	0c 94 30 03 	jmp	0x660	; 0x660 <__bad_interrupt>
      64:	0c 94 30 03 	jmp	0x660	; 0x660 <__bad_interrupt>
      68:	0c 94 30 03 	jmp	0x660	; 0x660 <__bad_interrupt>
      6c:	0c 94 30 03 	jmp	0x660	; 0x660 <__bad_interrupt>
      70:	0c 94 96 17 	jmp	0x2f2c	; 0x2f2c <__vector_28>
      74:	0c 94 54 17 	jmp	0x2ea8	; 0x2ea8 <__vector_29>
      78:	0c 94 30 03 	jmp	0x660	; 0x660 <__bad_interrupt>
      7c:	0c 94 30 03 	jmp	0x660	; 0x660 <__bad_interrupt>
      80:	0c 94 30 03 	jmp	0x660	; 0x660 <__bad_interrupt>
      84:	0c 94 30 03 	jmp	0x660	; 0x660 <__bad_interrupt>
      88:	0c 94 30 03 	jmp	0x660	; 0x660 <__bad_interrupt>
      8c:	0c 94 30 03 	jmp	0x660	; 0x660 <__bad_interrupt>
      90:	0c 94 30 03 	jmp	0x660	; 0x660 <__bad_interrupt>
      94:	0c 94 30 03 	jmp	0x660	; 0x660 <__bad_interrupt>
      98:	0c 94 30 03 	jmp	0x660	; 0x660 <__bad_interrupt>
      9c:	0c 94 30 03 	jmp	0x660	; 0x660 <__bad_interrupt>
      a0:	0c 94 30 03 	jmp	0x660	; 0x660 <__bad_interrupt>
      a4:	0c 94 30 03 	jmp	0x660	; 0x660 <__bad_interrupt>
      a8:	0c 94 30 03 	jmp	0x660	; 0x660 <__bad_interrupt>
      ac:	0c 94 30 03 	jmp	0x660	; 0x660 <__bad_interrupt>
      b0:	0c 94 30 03 	jmp	0x660	; 0x660 <__bad_interrupt>
      b4:	0c 94 30 03 	jmp	0x660	; 0x660 <__bad_interrupt>
      b8:	0c 94 30 03 	jmp	0x660	; 0x660 <__bad_interrupt>
      bc:	0c 94 30 03 	jmp	0x660	; 0x660 <__bad_interrupt>
      c0:	0c 94 30 03 	jmp	0x660	; 0x660 <__bad_interrupt>
      c4:	0c 94 30 03 	jmp	0x660	; 0x660 <__bad_interrupt>
      c8:	0c 94 30 03 	jmp	0x660	; 0x660 <__bad_interrupt>
      cc:	0c 94 30 03 	jmp	0x660	; 0x660 <__bad_interrupt>
      d0:	0c 94 30 03 	jmp	0x660	; 0x660 <__bad_interrupt>
      d4:	0c 94 30 03 	jmp	0x660	; 0x660 <__bad_interrupt>
      d8:	0c 94 30 03 	jmp	0x660	; 0x660 <__bad_interrupt>
      dc:	0c 94 30 03 	jmp	0x660	; 0x660 <__bad_interrupt>
      e0:	0c 94 30 03 	jmp	0x660	; 0x660 <__bad_interrupt>
      e4:	0c 94 30 03 	jmp	0x660	; 0x660 <__bad_interrupt>
      e8:	0c 94 30 03 	jmp	0x660	; 0x660 <__bad_interrupt>
      ec:	0c 94 30 03 	jmp	0x660	; 0x660 <__bad_interrupt>
      f0:	0c 94 30 03 	jmp	0x660	; 0x660 <__bad_interrupt>
      f4:	0c 94 30 03 	jmp	0x660	; 0x660 <__bad_interrupt>
      f8:	0c 94 30 03 	jmp	0x660	; 0x660 <__bad_interrupt>
      fc:	0c 94 30 03 	jmp	0x660	; 0x660 <__bad_interrupt>
     100:	0c 94 30 03 	jmp	0x660	; 0x660 <__bad_interrupt>
     104:	0c 94 30 03 	jmp	0x660	; 0x660 <__bad_interrupt>
     108:	0c 94 30 03 	jmp	0x660	; 0x660 <__bad_interrupt>
     10c:	0c 94 30 03 	jmp	0x660	; 0x660 <__bad_interrupt>
     110:	0c 94 30 03 	jmp	0x660	; 0x660 <__bad_interrupt>
     114:	0c 94 30 03 	jmp	0x660	; 0x660 <__bad_interrupt>
     118:	0c 94 30 03 	jmp	0x660	; 0x660 <__bad_interrupt>
     11c:	0c 94 30 03 	jmp	0x660	; 0x660 <__bad_interrupt>
     120:	0c 94 30 03 	jmp	0x660	; 0x660 <__bad_interrupt>
     124:	0c 94 30 03 	jmp	0x660	; 0x660 <__bad_interrupt>
     128:	0c 94 30 03 	jmp	0x660	; 0x660 <__bad_interrupt>
     12c:	0c 94 30 03 	jmp	0x660	; 0x660 <__bad_interrupt>
     130:	0c 94 30 03 	jmp	0x660	; 0x660 <__bad_interrupt>
     134:	0c 94 30 03 	jmp	0x660	; 0x660 <__bad_interrupt>
     138:	0c 94 30 03 	jmp	0x660	; 0x660 <__bad_interrupt>
     13c:	0c 94 30 03 	jmp	0x660	; 0x660 <__bad_interrupt>
     140:	0c 94 30 03 	jmp	0x660	; 0x660 <__bad_interrupt>
     144:	0c 94 30 03 	jmp	0x660	; 0x660 <__bad_interrupt>
     148:	0c 94 30 03 	jmp	0x660	; 0x660 <__bad_interrupt>
     14c:	0c 94 30 03 	jmp	0x660	; 0x660 <__bad_interrupt>
     150:	0c 94 30 03 	jmp	0x660	; 0x660 <__bad_interrupt>
     154:	0c 94 30 03 	jmp	0x660	; 0x660 <__bad_interrupt>
     158:	0c 94 30 03 	jmp	0x660	; 0x660 <__bad_interrupt>
     15c:	0c 94 30 03 	jmp	0x660	; 0x660 <__bad_interrupt>
     160:	0c 94 30 03 	jmp	0x660	; 0x660 <__bad_interrupt>
     164:	0c 94 30 03 	jmp	0x660	; 0x660 <__bad_interrupt>
     168:	0c 94 30 03 	jmp	0x660	; 0x660 <__bad_interrupt>
     16c:	0c 94 30 03 	jmp	0x660	; 0x660 <__bad_interrupt>
     170:	0c 94 30 03 	jmp	0x660	; 0x660 <__bad_interrupt>
     174:	0c 94 30 03 	jmp	0x660	; 0x660 <__bad_interrupt>
     178:	57 0d       	add	r21, r7
     17a:	66 0f       	add	r22, r22
     17c:	66 0f       	add	r22, r22
     17e:	66 0f       	add	r22, r22
     180:	66 0f       	add	r22, r22
     182:	66 0f       	add	r22, r22
     184:	66 0f       	add	r22, r22
     186:	66 0f       	add	r22, r22
     188:	66 0f       	add	r22, r22
     18a:	66 0f       	add	r22, r22
     18c:	7a 0d       	add	r23, r10
     18e:	96 0d       	add	r25, r6
     190:	b2 0d       	add	r27, r2
     192:	ce 0d       	add	r28, r14
     194:	66 0f       	add	r22, r22
     196:	66 0f       	add	r22, r22
     198:	66 0f       	add	r22, r22
     19a:	66 0f       	add	r22, r22
     19c:	66 0f       	add	r22, r22
     19e:	66 0f       	add	r22, r22
     1a0:	8a 0d       	add	r24, r10
     1a2:	a4 0d       	add	r26, r4
     1a4:	c0 0d       	add	r28, r0
     1a6:	dc 0d       	add	r29, r12
     1a8:	66 0f       	add	r22, r22
     1aa:	66 0f       	add	r22, r22
     1ac:	66 0f       	add	r22, r22
     1ae:	66 0f       	add	r22, r22
     1b0:	66 0f       	add	r22, r22
     1b2:	6e 0d       	add	r22, r14
     1b4:	ea 0d       	add	r30, r10
     1b6:	66 0f       	add	r22, r22
     1b8:	66 0f       	add	r22, r22
     1ba:	66 0f       	add	r22, r22
     1bc:	66 0f       	add	r22, r22
     1be:	66 0f       	add	r22, r22
     1c0:	66 0f       	add	r22, r22
     1c2:	66 0f       	add	r22, r22
     1c4:	66 0f       	add	r22, r22
     1c6:	f7 0d       	add	r31, r7
     1c8:	02 0e       	add	r0, r18
     1ca:	66 0f       	add	r22, r22
     1cc:	66 0f       	add	r22, r22
     1ce:	66 0f       	add	r22, r22
     1d0:	66 0f       	add	r22, r22
     1d2:	66 0f       	add	r22, r22
     1d4:	66 0f       	add	r22, r22
     1d6:	66 0f       	add	r22, r22
     1d8:	66 0f       	add	r22, r22
     1da:	66 0f       	add	r22, r22
     1dc:	12 0e       	add	r1, r18
     1de:	66 0f       	add	r22, r22
     1e0:	66 0f       	add	r22, r22
     1e2:	66 0f       	add	r22, r22
     1e4:	66 0f       	add	r22, r22
     1e6:	66 0f       	add	r22, r22
     1e8:	66 0f       	add	r22, r22
     1ea:	66 0f       	add	r22, r22
     1ec:	66 0f       	add	r22, r22
     1ee:	66 0f       	add	r22, r22
     1f0:	66 0f       	add	r22, r22
     1f2:	66 0f       	add	r22, r22
     1f4:	66 0f       	add	r22, r22
     1f6:	66 0f       	add	r22, r22
     1f8:	66 0f       	add	r22, r22
     1fa:	66 0f       	add	r22, r22
     1fc:	66 0f       	add	r22, r22
     1fe:	66 0f       	add	r22, r22
     200:	66 0f       	add	r22, r22
     202:	2e 0e       	add	r2, r30
     204:	56 0e       	add	r5, r22
     206:	6c 0e       	add	r6, r28
     208:	a4 0e       	add	r10, r20
     20a:	ba 0e       	add	r11, r26
     20c:	d0 0e       	add	r13, r16
     20e:	e6 0e       	add	r14, r22
     210:	fc 0e       	add	r15, r28
     212:	27 0f       	add	r18, r23
     214:	38 0f       	add	r19, r24
     216:	49 0f       	add	r20, r25
     218:	58 0f       	add	r21, r24
     21a:	75 0f       	add	r23, r21
     21c:	98 08       	sbc	r9, r8
     21e:	61 11       	cpse	r22, r1
     220:	98 08       	sbc	r9, r8
     222:	98 08       	sbc	r9, r8
     224:	98 08       	sbc	r9, r8
     226:	98 08       	sbc	r9, r8
     228:	98 08       	sbc	r9, r8
     22a:	98 08       	sbc	r9, r8
     22c:	98 08       	sbc	r9, r8
     22e:	98 08       	sbc	r9, r8
     230:	94 11       	cpse	r25, r4
     232:	dd 11       	cpse	r29, r13
     234:	2c 12       	cpse	r2, r28
     236:	78 12       	cpse	r7, r24
     238:	98 08       	sbc	r9, r8
     23a:	98 08       	sbc	r9, r8
     23c:	98 08       	sbc	r9, r8
     23e:	98 08       	sbc	r9, r8
     240:	98 08       	sbc	r9, r8
     242:	98 08       	sbc	r9, r8
     244:	b7 11       	cpse	r27, r7
     246:	06 12       	cpse	r0, r22
     248:	52 12       	cpse	r5, r18
     24a:	9e 12       	cpse	r9, r30
     24c:	98 08       	sbc	r9, r8
     24e:	98 08       	sbc	r9, r8
     250:	98 08       	sbc	r9, r8
     252:	98 08       	sbc	r9, r8
     254:	98 08       	sbc	r9, r8
     256:	98 08       	sbc	r9, r8
     258:	c4 12       	cpse	r12, r20
     25a:	ea 12       	cpse	r14, r26
     25c:	f6 12       	cpse	r15, r22
     25e:	98 08       	sbc	r9, r8
     260:	98 08       	sbc	r9, r8
     262:	98 08       	sbc	r9, r8
     264:	98 08       	sbc	r9, r8
     266:	98 08       	sbc	r9, r8
     268:	98 08       	sbc	r9, r8
     26a:	98 08       	sbc	r9, r8
     26c:	98 08       	sbc	r9, r8
     26e:	98 08       	sbc	r9, r8
     270:	98 08       	sbc	r9, r8
     272:	98 08       	sbc	r9, r8
     274:	98 08       	sbc	r9, r8
     276:	98 08       	sbc	r9, r8
     278:	98 08       	sbc	r9, r8
     27a:	98 08       	sbc	r9, r8
     27c:	98 08       	sbc	r9, r8
     27e:	98 08       	sbc	r9, r8
     280:	21 13       	cpse	r18, r17
     282:	98 08       	sbc	r9, r8
     284:	98 08       	sbc	r9, r8
     286:	98 08       	sbc	r9, r8
     288:	98 08       	sbc	r9, r8
     28a:	98 08       	sbc	r9, r8
     28c:	98 08       	sbc	r9, r8
     28e:	98 08       	sbc	r9, r8
     290:	98 08       	sbc	r9, r8
     292:	98 08       	sbc	r9, r8
     294:	98 08       	sbc	r9, r8
     296:	98 08       	sbc	r9, r8
     298:	98 08       	sbc	r9, r8
     29a:	98 08       	sbc	r9, r8
     29c:	98 08       	sbc	r9, r8
     29e:	98 08       	sbc	r9, r8
     2a0:	98 08       	sbc	r9, r8
     2a2:	98 08       	sbc	r9, r8
     2a4:	98 08       	sbc	r9, r8
     2a6:	60 13       	cpse	r22, r16
     2a8:	a3 13       	cpse	r26, r19
     2aa:	d7 13       	cpse	r29, r23
     2ac:	0a 14       	cp	r0, r10
     2ae:	3d 14       	cp	r3, r13
     2b0:	70 14       	cp	r7, r0
     2b2:	a4 14       	cp	r10, r4
     2b4:	d8 14       	cp	r13, r8
     2b6:	17 15       	cp	r17, r7
     2b8:	26 15       	cp	r18, r6
     2ba:	4f 15       	cp	r20, r15
     2bc:	78 15       	cp	r23, r8

000002be <default_alphaDisplay>:
     2be:	64 32 0d 0d 00 00 00 00 00 00 00 00 00 00 00 00     d2..............
	...
     2de:	00 31 3a 20 c5 01 00 00 52 50 4d 20 20 c6 01 00     .1: ....RPM  ...
     2ee:	25 32 3a 20 c5 02 00 00 52 50 4d 20 20 c6 02 00     %2: ....RPM  ...
     2fe:	25 33 3a 20 c5 03 00 00 52 50 4d 20 20 c6 03 00     %3: ....RPM  ...
     30e:	25 c0 01 00 00 20 f2 43 20 c0 04 00 00 20 f2 43     %.... .C .... .C
     31e:	20 c0 02 00 00 20 f2 43 20 c0 05 00 00 20 f2 43      .... .C .... .C
     32e:	20 c0 03 00 00 20 f2 43 20 c0 06 00 00 20 f2 43      .... .C .... .C
     33e:	20 20 20 20 20 20 20 20 20 20 20 20 20 20 20 20                     
     34e:	20 20 20 20 20 20 20 20 20 20 20 20 20 20 20 20                     
     35e:	20 20 20 20 20 20 20 20 20 20 20 20 20 20 20 20                     
     36e:	20 20 20 20 20 20 20 20 20 20 20 20 20 20 20 20                     
     37e:	20 20 20 20 20 20 20 20 20 20 20 20 20 20 20 20                     
     38e:	20 20 20 20 20 20 20 20 20 20 20 20 20 20 20 20                     
     39e:	20 20 20 20 20 20 20 20 20 20 20 20 20 20 20 20                     
     3ae:	20 20 20 20 20 20 20 20 20 20 20 20 20 20 20 20                     
     3be:	20 20 20 20 20 20 20 20 20 20 20 20 20 20 20 20                     
     3ce:	20 20 20 20 20 20 20 20 20 20 20 20 20 20 20 20                     

000003de <default_pulsePerLiter>:
     3de:	a9 00                                               ..

000003e0 <default_alert_data>:
     3e0:	00 00 00 00                                         ....

000003e4 <default_led_data>:
     3e4:	00 64 64 64                                         .ddd

000003e8 <default_spare_temperature>:
     3e8:	a0 a0 a0 a0 a0 a0 a0 a0                             ........

000003f0 <default_channel_data>:
     3f0:	fa fa fa fa fa fa fa fa fa fa fa fa fa fa fa fa     ................
     400:	fa fa fa fa fa fa fa fa ff ff ff ff ff ff ff ff     ................
     410:	ff ff ff ff ff ff ff ff ff ff ff ff ff ff ff ff     ................
     420:	64 21 06 00 00 0a                                   d!....

00000426 <tempTable>:
     426:	c7 c7 c7 c7 c7 c7 c7 c7 c7 c7 c7 c7 c7 c7 c7 c7     ................
     436:	c7 c7 c7 c7 c7 c7 c7 c7 c7 c7 c7 c7 c7 c7 c7 c7     ................
     446:	c7 c7 c7 c7 c7 c7 c7 c7 c7 c5 c3 c1 bf bd bb b9     ................
     456:	b7 b6 b4 b3 b1 af ae ac ab aa a8 a7 a6 a4 a3 a2     ................
     466:	a1 9f 9e 9d 9c 9b 9a 99 98 96 95 94 93 92 91 91     ................
     476:	90 8f 8e 8d 8c 8b 8a 89 89 88 87 86 85 85 84 83     ................
     486:	82 81 81 80 7f 7f 7e 7d 7c 7c 7b 7a 7a 79 78 78     ......~}||{zzyxx
     496:	77 77 76 75 75 74 73 73 72 72 71 71 70 6f 6f 6e     wwvuutssrrqqpoon
     4a6:	6e 6d 6d 6c 6c 6b 6b 6a 6a 69 69 68 68 67 67 66     nmmllkkjjiihhggf
     4b6:	66 65 65 64 64 63 63 62 62 62 61 61 60 60 5f 5f     feeddccbbbaa``__
     4c6:	5e 5e 5e 5d 5d 5c 5c 5c 5b 5b 5a 5a 5a 59 59 58     ^^^]]\\\[[ZZZYYX
     4d6:	58 58 57 57 57 56 56 55 55 55 54 54 54 53 53 53     XXWWWVVUUUTTTSSS
     4e6:	52 52 52 51 51 51 50 50 50 4f 4f 4f 4e 4e 4e 4d     RRRQQQPPPOOONNNM
     4f6:	4d 4d 4c 4c 4c 4b 4b 4b 4a 4a 4a 4a 49 49 49 48     MMLLLKKKJJJJIIIH
     506:	48 48 47 47 47 47 46 46 46 45 45 45 45 44 44 44     HHGGGGFFFEEEEDDD
     516:	44 43 43 43 42 42 42 42 41 41 41 41 40 40 40 40     DCCCBBBBAAAA@@@@
     526:	3f 3f 3f 3f 3e 3e 3e 3e 3d 3d 3d 3d 3c 3c 3c 3c     ????>>>>====<<<<
     536:	3b 3b 3b 3b 3a 3a 3a 3a 39 39 39 39 39 38 38 38     ;;;;::::99999888
     546:	38 37 37 37 37 36 36 36 36 36 35 35 35 35 35 34     8777766666555554
     556:	34 34 34 33 33 33 33 33 32 32 32 32 32 31 31 31     4443333322222111
     566:	31 31 30 30 30 30 30 2f 2f 2f 2f 2f 2e 2e 2e 2e     1100000/////....
     576:	2e 2d 2d 2d 2d 2d 2c 2c 2c 2c 2c 2b 2b 2b 2b 2b     .-----,,,,,+++++
     586:	2b 2a 2a 2a 2a 2a 29 29 29 29 29 29 28 28 28 28     +*****))))))((((
     596:	28 27 27 27 27 27 27 26 26 26 26 26 26 25 25 25     (''''''&&&&&&%%%
     5a6:	25 25 24 24 24 24 24 24 23 23 23 23 23 23 22 22     %%$$$$$$######""
     5b6:	22 22 22 22 21 21 21 21 21 21 21 20 20 20 20 20     """"!!!!!!!     
     5c6:	20 1f 1f 1f 1f 1f 1f 1e 1e 1e 1e 1e 1e 1e 1d 1d      ...............
     5d6:	1d 1d 1d 1d 1c 1c 1c 1c 1c 1c 1c 1b 1b 1b 1b 1b     ................
     5e6:	1b 1a 1a 1a 1a 1a 1a 1a 19 19 19 19 19 19 19 18     ................
     5f6:	18 18 18 18 18 18 17 17 17 17 17 17 17 16 16 16     ................
     606:	16 16 16 16 15 15 15 15 15 15 15 14 14 14 14 14     ................
     616:	14 14 14 13 13 13 13 13 13 13 12 12 12 12 12 12     ................

00000626 <__ctors_end>:
     626:	11 24       	eor	r1, r1
     628:	1f be       	out	0x3f, r1	; 63
     62a:	cf ef       	ldi	r28, 0xFF	; 255
     62c:	df e2       	ldi	r29, 0x2F	; 47
     62e:	de bf       	out	0x3e, r29	; 62
     630:	cd bf       	out	0x3d, r28	; 61

00000632 <__do_copy_data>:
     632:	10 e2       	ldi	r17, 0x20	; 32
     634:	a0 e0       	ldi	r26, 0x00	; 0
     636:	b0 e2       	ldi	r27, 0x20	; 32
     638:	ec e0       	ldi	r30, 0x0C	; 12
     63a:	f1 e4       	ldi	r31, 0x41	; 65
     63c:	02 c0       	rjmp	.+4      	; 0x642 <__do_copy_data+0x10>
     63e:	05 90       	lpm	r0, Z+
     640:	0d 92       	st	X+, r0
     642:	a4 36       	cpi	r26, 0x64	; 100
     644:	b1 07       	cpc	r27, r17
     646:	d9 f7       	brne	.-10     	; 0x63e <__do_copy_data+0xc>

00000648 <__do_clear_bss>:
     648:	22 e2       	ldi	r18, 0x22	; 34
     64a:	a4 e6       	ldi	r26, 0x64	; 100
     64c:	b0 e2       	ldi	r27, 0x20	; 32
     64e:	01 c0       	rjmp	.+2      	; 0x652 <.do_clear_bss_start>

00000650 <.do_clear_bss_loop>:
     650:	1d 92       	st	X+, r1

00000652 <.do_clear_bss_start>:
     652:	a0 30       	cpi	r26, 0x00	; 0
     654:	b2 07       	cpc	r27, r18
     656:	e1 f7       	brne	.-8      	; 0x650 <.do_clear_bss_loop>
     658:	0e 94 ae 06 	call	0xd5c	; 0xd5c <main>
     65c:	0c 94 84 20 	jmp	0x4108	; 0x4108 <_exit>

00000660 <__bad_interrupt>:
     660:	0c 94 00 00 	jmp	0	; 0x0 <__vectors>

00000664 <alpha_init>:
#include <string.h>


void alpha_init()
{
	displayInit();
     664:	0e 94 a7 16 	call	0x2d4e	; 0x2d4e <displayInit>
     668:	08 95       	ret

0000066a <alpha_setContrast>:
}

void alpha_setContrast(uint8_t contrast)
{
	displaySetContrast(contrast);
     66a:	0e 94 df 16 	call	0x2dbe	; 0x2dbe <displaySetContrast>
     66e:	08 95       	ret

00000670 <alpha_updateScreen>:
}

void alpha_updateScreen(uint8_t screen, uint8_t *contant, uint8_t *temperature, uint8_t *time, uint16_t *pc, uint16_t *waterFlow, CHANNELSTATUS *channels)
{
     670:	2f 92       	push	r2
     672:	3f 92       	push	r3
     674:	4f 92       	push	r4
     676:	5f 92       	push	r5
     678:	7f 92       	push	r7
     67a:	8f 92       	push	r8
     67c:	9f 92       	push	r9
     67e:	af 92       	push	r10
     680:	bf 92       	push	r11
     682:	cf 92       	push	r12
     684:	df 92       	push	r13
     686:	ef 92       	push	r14
     688:	ff 92       	push	r15
     68a:	0f 93       	push	r16
     68c:	1f 93       	push	r17
     68e:	cf 93       	push	r28
     690:	df 93       	push	r29
     692:	cd b7       	in	r28, 0x3d	; 61
     694:	de b7       	in	r29, 0x3e	; 62
     696:	2a 97       	sbiw	r28, 0x0a	; 10
     698:	cd bf       	out	0x3d, r28	; 61
     69a:	de bf       	out	0x3e, r29	; 62
     69c:	5b 01       	movw	r10, r22
     69e:	2a 01       	movw	r4, r20
     6a0:	19 01       	movw	r2, r18
     6a2:	e9 86       	std	Y+9, r14	; 0x09
     6a4:	fa 86       	std	Y+10, r15	; 0x0a
     6a6:	f8 2e       	mov	r15, r24
     6a8:	84 e0       	ldi	r24, 0x04	; 4
     6aa:	8f 15       	cp	r24, r15
     6ac:	18 f4       	brcc	.+6      	; 0x6b4 <alpha_updateScreen+0x44>
     6ae:	68 94       	set
     6b0:	ff 24       	eor	r15, r15
     6b2:	f2 f8       	bld	r15, 2
	if (screen > MAXSCREEN)
	{
		screen = MAXSCREEN;
	}
	
	displaySetCursor(0);		// faster as displayHome()
     6b4:	80 e0       	ldi	r24, 0x00	; 0
     6b6:	0e 94 d2 16 	call	0x2da4	; 0x2da4 <displaySetCursor>
	
	for (i=(screen*CHARS);i<((screen+1)*CHARS);i++)
     6ba:	20 e3       	ldi	r18, 0x30	; 48
     6bc:	f2 9e       	mul	r15, r18
     6be:	70 2c       	mov	r7, r0
     6c0:	11 24       	eor	r1, r1
     6c2:	8f 2d       	mov	r24, r15
     6c4:	90 e0       	ldi	r25, 0x00	; 0
     6c6:	01 96       	adiw	r24, 0x01	; 1
     6c8:	28 9f       	mul	r18, r24
     6ca:	70 01       	movw	r14, r0
     6cc:	29 9f       	mul	r18, r25
     6ce:	f0 0c       	add	r15, r0
     6d0:	11 24       	eor	r1, r1
     6d2:	87 2d       	mov	r24, r7
     6d4:	90 e0       	ldi	r25, 0x00	; 0
     6d6:	8e 15       	cp	r24, r14
     6d8:	9f 05       	cpc	r25, r15
     6da:	0c f0       	brlt	.+2      	; 0x6de <alpha_updateScreen+0x6e>
     6dc:	f9 c1       	rjmp	.+1010   	; 0xad0 <alpha_updateScreen+0x460>
	{
		switch (*(contant+i))
     6de:	27 2d       	mov	r18, r7
     6e0:	30 e0       	ldi	r19, 0x00	; 0
     6e2:	f5 01       	movw	r30, r10
     6e4:	e2 0f       	add	r30, r18
     6e6:	f3 1f       	adc	r31, r19
     6e8:	80 81       	ld	r24, Z
     6ea:	83 3c       	cpi	r24, 0xC3	; 195
     6ec:	09 f4       	brne	.+2      	; 0x6f0 <alpha_updateScreen+0x80>
     6ee:	cd c0       	rjmp	.+410    	; 0x88a <alpha_updateScreen+0x21a>
     6f0:	48 f4       	brcc	.+18     	; 0x704 <alpha_updateScreen+0x94>
     6f2:	81 3c       	cpi	r24, 0xC1	; 193
     6f4:	09 f4       	brne	.+2      	; 0x6f8 <alpha_updateScreen+0x88>
     6f6:	54 c0       	rjmp	.+168    	; 0x7a0 <alpha_updateScreen+0x130>
     6f8:	08 f0       	brcs	.+2      	; 0x6fc <alpha_updateScreen+0x8c>
     6fa:	79 c0       	rjmp	.+242    	; 0x7ee <alpha_updateScreen+0x17e>
     6fc:	80 3c       	cpi	r24, 0xC0	; 192
     6fe:	09 f0       	breq	.+2      	; 0x702 <alpha_updateScreen+0x92>
     700:	de c1       	rjmp	.+956    	; 0xabe <alpha_updateScreen+0x44e>
     702:	09 c0       	rjmp	.+18     	; 0x716 <alpha_updateScreen+0xa6>
     704:	85 3c       	cpi	r24, 0xC5	; 197
     706:	09 f4       	brne	.+2      	; 0x70a <alpha_updateScreen+0x9a>
     708:	37 c1       	rjmp	.+622    	; 0x978 <alpha_updateScreen+0x308>
     70a:	08 f4       	brcc	.+2      	; 0x70e <alpha_updateScreen+0x9e>
     70c:	01 c1       	rjmp	.+514    	; 0x910 <alpha_updateScreen+0x2a0>
     70e:	86 3c       	cpi	r24, 0xC6	; 198
     710:	09 f0       	breq	.+2      	; 0x714 <alpha_updateScreen+0xa4>
     712:	d5 c1       	rjmp	.+938    	; 0xabe <alpha_updateScreen+0x44e>
     714:	91 c1       	rjmp	.+802    	; 0xa38 <alpha_updateScreen+0x3c8>
		{
			case 192:			// insert temperature
				index = (*(contant+i+1))-1;
     716:	f5 01       	movw	r30, r10
     718:	e2 0f       	add	r30, r18
     71a:	f3 1f       	adc	r31, r19
     71c:	81 81       	ldd	r24, Z+1	; 0x01
     71e:	81 50       	subi	r24, 0x01	; 1
				if (index > 23)	// check for correct index
     720:	88 31       	cpi	r24, 0x18	; 24
     722:	08 f0       	brcs	.+2      	; 0x726 <alpha_updateScreen+0xb6>
				{
					index = 0;
     724:	80 e0       	ldi	r24, 0x00	; 0
				}
				aByte = *(temperature+index);
     726:	f2 01       	movw	r30, r4
     728:	e8 0f       	add	r30, r24
     72a:	f1 1d       	adc	r31, r1
     72c:	90 80       	ld	r9, Z
				if (aByte == 220)
     72e:	ec ed       	ldi	r30, 0xDC	; 220
     730:	9e 12       	cpse	r9, r30
     732:	0d c0       	rjmp	.+26     	; 0x74e <alpha_updateScreen+0xde>
				{
					displayWriteChar('n');
     734:	8e e6       	ldi	r24, 0x6E	; 110
     736:	0e 94 d9 16 	call	0x2db2	; 0x2db2 <displayWriteChar>
					displayWriteChar('.');
     73a:	8e e2       	ldi	r24, 0x2E	; 46
     73c:	0e 94 d9 16 	call	0x2db2	; 0x2db2 <displayWriteChar>
					displayWriteChar('c');
     740:	83 e6       	ldi	r24, 0x63	; 99
     742:	0e 94 d9 16 	call	0x2db2	; 0x2db2 <displayWriteChar>
					displayWriteChar('.');
     746:	8e e2       	ldi	r24, 0x2E	; 46
     748:	0e 94 d9 16 	call	0x2db2	; 0x2db2 <displayWriteChar>
     74c:	26 c0       	rjmp	.+76     	; 0x79a <alpha_updateScreen+0x12a>
				} 
				else
				{
					itoa((aByte/2),string,10);
     74e:	4a e0       	ldi	r20, 0x0A	; 10
     750:	50 e0       	ldi	r21, 0x00	; 0
     752:	be 01       	movw	r22, r28
     754:	6f 5f       	subi	r22, 0xFF	; 255
     756:	7f 4f       	sbci	r23, 0xFF	; 255
     758:	89 2d       	mov	r24, r9
     75a:	86 95       	lsr	r24
     75c:	90 e0       	ldi	r25, 0x00	; 0
     75e:	0e 94 f0 1f 	call	0x3fe0	; 0x3fe0 <itoa>
					if ((aByte/2)<10)	// temperature < 10 °C
     762:	f3 e1       	ldi	r31, 0x13	; 19
     764:	f9 15       	cp	r31, r9
     766:	38 f0       	brcs	.+14     	; 0x776 <alpha_updateScreen+0x106>
					{
						displayWriteChar(' ');
     768:	80 e2       	ldi	r24, 0x20	; 32
     76a:	0e 94 d9 16 	call	0x2db2	; 0x2db2 <displayWriteChar>
						displayWriteChar(string[0]);
     76e:	89 81       	ldd	r24, Y+1	; 0x01
     770:	0e 94 d9 16 	call	0x2db2	; 0x2db2 <displayWriteChar>
     774:	06 c0       	rjmp	.+12     	; 0x782 <alpha_updateScreen+0x112>
					} 
					else
					{
						displayWriteChar(string[0]);
     776:	89 81       	ldd	r24, Y+1	; 0x01
     778:	0e 94 d9 16 	call	0x2db2	; 0x2db2 <displayWriteChar>
						displayWriteChar(string[1]);
     77c:	8a 81       	ldd	r24, Y+2	; 0x02
     77e:	0e 94 d9 16 	call	0x2db2	; 0x2db2 <displayWriteChar>
					}
					displayWriteChar(',');
     782:	8c e2       	ldi	r24, 0x2C	; 44
     784:	0e 94 d9 16 	call	0x2db2	; 0x2db2 <displayWriteChar>
					if (aByte%2)		// it is uneven
     788:	90 fe       	sbrs	r9, 0
     78a:	04 c0       	rjmp	.+8      	; 0x794 <alpha_updateScreen+0x124>
					{
						displayWriteChar('5');
     78c:	85 e3       	ldi	r24, 0x35	; 53
     78e:	0e 94 d9 16 	call	0x2db2	; 0x2db2 <displayWriteChar>
     792:	03 c0       	rjmp	.+6      	; 0x79a <alpha_updateScreen+0x12a>
					} 
					else
					{
						displayWriteChar('0');
     794:	80 e3       	ldi	r24, 0x30	; 48
     796:	0e 94 d9 16 	call	0x2db2	; 0x2db2 <displayWriteChar>
					}
				}
				i+=3;					
     79a:	83 e0       	ldi	r24, 0x03	; 3
     79c:	78 0e       	add	r7, r24
				break;
     79e:	91 c1       	rjmp	.+802    	; 0xac2 <alpha_updateScreen+0x452>
				
			case 193:			// insert time
				index = (*(contant+i+1))-1;
     7a0:	f5 01       	movw	r30, r10
     7a2:	e2 0f       	add	r30, r18
     7a4:	f3 1f       	adc	r31, r19
     7a6:	81 81       	ldd	r24, Z+1	; 0x01
     7a8:	81 50       	subi	r24, 0x01	; 1
				if (index > 2)	// check for correct index
     7aa:	83 30       	cpi	r24, 0x03	; 3
     7ac:	08 f0       	brcs	.+2      	; 0x7b0 <alpha_updateScreen+0x140>
				{
					index = 0;
     7ae:	80 e0       	ldi	r24, 0x00	; 0
				}
				aByte = *(time+index);				
     7b0:	f1 01       	movw	r30, r2
     7b2:	e8 0f       	add	r30, r24
     7b4:	f1 1d       	adc	r31, r1
     7b6:	90 80       	ld	r9, Z
				itoa((aByte),string,10);
     7b8:	4a e0       	ldi	r20, 0x0A	; 10
     7ba:	50 e0       	ldi	r21, 0x00	; 0
     7bc:	be 01       	movw	r22, r28
     7be:	6f 5f       	subi	r22, 0xFF	; 255
     7c0:	7f 4f       	sbci	r23, 0xFF	; 255
     7c2:	89 2d       	mov	r24, r9
     7c4:	90 e0       	ldi	r25, 0x00	; 0
     7c6:	0e 94 f0 1f 	call	0x3fe0	; 0x3fe0 <itoa>
				if (aByte<10)	// time < 10 
     7ca:	e9 e0       	ldi	r30, 0x09	; 9
     7cc:	e9 15       	cp	r30, r9
     7ce:	38 f0       	brcs	.+14     	; 0x7de <alpha_updateScreen+0x16e>
				{
					displayWriteChar('0');
     7d0:	80 e3       	ldi	r24, 0x30	; 48
     7d2:	0e 94 d9 16 	call	0x2db2	; 0x2db2 <displayWriteChar>
					displayWriteChar(string[0]);
     7d6:	89 81       	ldd	r24, Y+1	; 0x01
     7d8:	0e 94 d9 16 	call	0x2db2	; 0x2db2 <displayWriteChar>
     7dc:	06 c0       	rjmp	.+12     	; 0x7ea <alpha_updateScreen+0x17a>
				}
				else
				{
					displayWriteChar(string[0]);
     7de:	89 81       	ldd	r24, Y+1	; 0x01
     7e0:	0e 94 d9 16 	call	0x2db2	; 0x2db2 <displayWriteChar>
					displayWriteChar(string[1]);
     7e4:	8a 81       	ldd	r24, Y+2	; 0x02
     7e6:	0e 94 d9 16 	call	0x2db2	; 0x2db2 <displayWriteChar>
				}
				i+=1;			
     7ea:	73 94       	inc	r7
				break;
     7ec:	6a c1       	rjmp	.+724    	; 0xac2 <alpha_updateScreen+0x452>
				
			case 194:			// insert CPU Clock
				aWord = *pc;
     7ee:	f8 01       	movw	r30, r16
     7f0:	80 80       	ld	r8, Z
     7f2:	91 80       	ldd	r9, Z+1	; 0x01
				itoa((aWord),string,10);
     7f4:	4a e0       	ldi	r20, 0x0A	; 10
     7f6:	50 e0       	ldi	r21, 0x00	; 0
     7f8:	be 01       	movw	r22, r28
     7fa:	6f 5f       	subi	r22, 0xFF	; 255
     7fc:	7f 4f       	sbci	r23, 0xFF	; 255
     7fe:	c4 01       	movw	r24, r8
     800:	0e 94 f0 1f 	call	0x3fe0	; 0x3fe0 <itoa>
				if (aWord<10)	
     804:	fa e0       	ldi	r31, 0x0A	; 10
     806:	8f 16       	cp	r8, r31
     808:	91 04       	cpc	r9, r1
     80a:	68 f4       	brcc	.+26     	; 0x826 <alpha_updateScreen+0x1b6>
				{
					displayWriteChar(' ');
     80c:	80 e2       	ldi	r24, 0x20	; 32
     80e:	0e 94 d9 16 	call	0x2db2	; 0x2db2 <displayWriteChar>
					displayWriteChar(' ');
     812:	80 e2       	ldi	r24, 0x20	; 32
     814:	0e 94 d9 16 	call	0x2db2	; 0x2db2 <displayWriteChar>
					displayWriteChar(' ');
     818:	80 e2       	ldi	r24, 0x20	; 32
     81a:	0e 94 d9 16 	call	0x2db2	; 0x2db2 <displayWriteChar>
					displayWriteChar(string[0]);
     81e:	89 81       	ldd	r24, Y+1	; 0x01
     820:	0e 94 d9 16 	call	0x2db2	; 0x2db2 <displayWriteChar>
     824:	2f c0       	rjmp	.+94     	; 0x884 <alpha_updateScreen+0x214>
				}
				else if (aWord<100)
     826:	84 e6       	ldi	r24, 0x64	; 100
     828:	88 16       	cp	r8, r24
     82a:	91 04       	cpc	r9, r1
     82c:	68 f4       	brcc	.+26     	; 0x848 <alpha_updateScreen+0x1d8>
				{
					displayWriteChar(' ');
     82e:	80 e2       	ldi	r24, 0x20	; 32
     830:	0e 94 d9 16 	call	0x2db2	; 0x2db2 <displayWriteChar>
					displayWriteChar(' ');
     834:	80 e2       	ldi	r24, 0x20	; 32
     836:	0e 94 d9 16 	call	0x2db2	; 0x2db2 <displayWriteChar>
					displayWriteChar(string[0]);
     83a:	89 81       	ldd	r24, Y+1	; 0x01
     83c:	0e 94 d9 16 	call	0x2db2	; 0x2db2 <displayWriteChar>
					displayWriteChar(string[1]);
     840:	8a 81       	ldd	r24, Y+2	; 0x02
     842:	0e 94 d9 16 	call	0x2db2	; 0x2db2 <displayWriteChar>
     846:	1e c0       	rjmp	.+60     	; 0x884 <alpha_updateScreen+0x214>
				} 
				else if (aWord<1000)
     848:	e8 ee       	ldi	r30, 0xE8	; 232
     84a:	8e 16       	cp	r8, r30
     84c:	e3 e0       	ldi	r30, 0x03	; 3
     84e:	9e 06       	cpc	r9, r30
     850:	68 f4       	brcc	.+26     	; 0x86c <alpha_updateScreen+0x1fc>
				{
					displayWriteChar(' ');
     852:	80 e2       	ldi	r24, 0x20	; 32
     854:	0e 94 d9 16 	call	0x2db2	; 0x2db2 <displayWriteChar>
					displayWriteChar(string[0]);
     858:	89 81       	ldd	r24, Y+1	; 0x01
     85a:	0e 94 d9 16 	call	0x2db2	; 0x2db2 <displayWriteChar>
					displayWriteChar(string[1]);
     85e:	8a 81       	ldd	r24, Y+2	; 0x02
     860:	0e 94 d9 16 	call	0x2db2	; 0x2db2 <displayWriteChar>
					displayWriteChar(string[2]);
     864:	8b 81       	ldd	r24, Y+3	; 0x03
     866:	0e 94 d9 16 	call	0x2db2	; 0x2db2 <displayWriteChar>
     86a:	0c c0       	rjmp	.+24     	; 0x884 <alpha_updateScreen+0x214>
				}
				else
				{
					displayWriteChar(string[0]);
     86c:	89 81       	ldd	r24, Y+1	; 0x01
     86e:	0e 94 d9 16 	call	0x2db2	; 0x2db2 <displayWriteChar>
					displayWriteChar(string[1]);
     872:	8a 81       	ldd	r24, Y+2	; 0x02
     874:	0e 94 d9 16 	call	0x2db2	; 0x2db2 <displayWriteChar>
					displayWriteChar(string[2]);
     878:	8b 81       	ldd	r24, Y+3	; 0x03
     87a:	0e 94 d9 16 	call	0x2db2	; 0x2db2 <displayWriteChar>
					displayWriteChar(string[3]);
     87e:	8c 81       	ldd	r24, Y+4	; 0x04
     880:	0e 94 d9 16 	call	0x2db2	; 0x2db2 <displayWriteChar>
				}
				i+=3;
     884:	f3 e0       	ldi	r31, 0x03	; 3
     886:	7f 0e       	add	r7, r31
				break;	
     888:	1c c1       	rjmp	.+568    	; 0xac2 <alpha_updateScreen+0x452>
		
			case 195:			// insert usage
				index = *(contant+i+1);
     88a:	f5 01       	movw	r30, r10
     88c:	e2 0f       	add	r30, r18
     88e:	f3 1f       	adc	r31, r19
     890:	e1 81       	ldd	r30, Z+1	; 0x01
				if (index > 3)	// check for correct index
     892:	e4 30       	cpi	r30, 0x04	; 4
     894:	18 f4       	brcc	.+6      	; 0x89c <alpha_updateScreen+0x22c>
				{
					index = 1;
				}
				if (index == 0)
     896:	ee 23       	and	r30, r30
     898:	19 f0       	breq	.+6      	; 0x8a0 <alpha_updateScreen+0x230>
     89a:	03 c0       	rjmp	.+6      	; 0x8a2 <alpha_updateScreen+0x232>
		
			case 195:			// insert usage
				index = *(contant+i+1);
				if (index > 3)	// check for correct index
				{
					index = 1;
     89c:	e1 e0       	ldi	r30, 0x01	; 1
     89e:	01 c0       	rjmp	.+2      	; 0x8a2 <alpha_updateScreen+0x232>
				}
				if (index == 0)
				{
					index = 1;
     8a0:	e1 e0       	ldi	r30, 0x01	; 1
				}
				aWord = *(pc+index);
     8a2:	f0 e0       	ldi	r31, 0x00	; 0
     8a4:	ee 0f       	add	r30, r30
     8a6:	ff 1f       	adc	r31, r31
     8a8:	e0 0f       	add	r30, r16
     8aa:	f1 1f       	adc	r31, r17
     8ac:	80 80       	ld	r8, Z
     8ae:	91 80       	ldd	r9, Z+1	; 0x01
				itoa((aWord),string,10);
     8b0:	4a e0       	ldi	r20, 0x0A	; 10
     8b2:	50 e0       	ldi	r21, 0x00	; 0
     8b4:	be 01       	movw	r22, r28
     8b6:	6f 5f       	subi	r22, 0xFF	; 255
     8b8:	7f 4f       	sbci	r23, 0xFF	; 255
     8ba:	c4 01       	movw	r24, r8
     8bc:	0e 94 f0 1f 	call	0x3fe0	; 0x3fe0 <itoa>
				if (aWord<10)
     8c0:	8a e0       	ldi	r24, 0x0A	; 10
     8c2:	88 16       	cp	r8, r24
     8c4:	91 04       	cpc	r9, r1
     8c6:	50 f4       	brcc	.+20     	; 0x8dc <alpha_updateScreen+0x26c>
				{
					displayWriteChar(' ');
     8c8:	80 e2       	ldi	r24, 0x20	; 32
     8ca:	0e 94 d9 16 	call	0x2db2	; 0x2db2 <displayWriteChar>
					displayWriteChar(' ');
     8ce:	80 e2       	ldi	r24, 0x20	; 32
     8d0:	0e 94 d9 16 	call	0x2db2	; 0x2db2 <displayWriteChar>
					displayWriteChar(string[0]);
     8d4:	89 81       	ldd	r24, Y+1	; 0x01
     8d6:	0e 94 d9 16 	call	0x2db2	; 0x2db2 <displayWriteChar>
     8da:	17 c0       	rjmp	.+46     	; 0x90a <alpha_updateScreen+0x29a>
				}
				else if (aWord<100)
     8dc:	e4 e6       	ldi	r30, 0x64	; 100
     8de:	8e 16       	cp	r8, r30
     8e0:	91 04       	cpc	r9, r1
     8e2:	50 f4       	brcc	.+20     	; 0x8f8 <alpha_updateScreen+0x288>
				{
					displayWriteChar(' ');
     8e4:	80 e2       	ldi	r24, 0x20	; 32
     8e6:	0e 94 d9 16 	call	0x2db2	; 0x2db2 <displayWriteChar>
					displayWriteChar(string[0]);
     8ea:	89 81       	ldd	r24, Y+1	; 0x01
     8ec:	0e 94 d9 16 	call	0x2db2	; 0x2db2 <displayWriteChar>
					displayWriteChar(string[1]);
     8f0:	8a 81       	ldd	r24, Y+2	; 0x02
     8f2:	0e 94 d9 16 	call	0x2db2	; 0x2db2 <displayWriteChar>
     8f6:	09 c0       	rjmp	.+18     	; 0x90a <alpha_updateScreen+0x29a>
				}
				else 
				{
					displayWriteChar(string[0]);
     8f8:	89 81       	ldd	r24, Y+1	; 0x01
     8fa:	0e 94 d9 16 	call	0x2db2	; 0x2db2 <displayWriteChar>
					displayWriteChar(string[1]);
     8fe:	8a 81       	ldd	r24, Y+2	; 0x02
     900:	0e 94 d9 16 	call	0x2db2	; 0x2db2 <displayWriteChar>
					displayWriteChar(string[2]);
     904:	8b 81       	ldd	r24, Y+3	; 0x03
     906:	0e 94 d9 16 	call	0x2db2	; 0x2db2 <displayWriteChar>
				}
				i+=2;
     90a:	73 94       	inc	r7
     90c:	73 94       	inc	r7
				break;
     90e:	d9 c0       	rjmp	.+434    	; 0xac2 <alpha_updateScreen+0x452>
			
			case 196:			// insert water flow
				aWord = *waterFlow;
     910:	e9 85       	ldd	r30, Y+9	; 0x09
     912:	fa 85       	ldd	r31, Y+10	; 0x0a
     914:	80 80       	ld	r8, Z
     916:	91 80       	ldd	r9, Z+1	; 0x01
				itoa((aWord),string,10);
     918:	4a e0       	ldi	r20, 0x0A	; 10
     91a:	50 e0       	ldi	r21, 0x00	; 0
     91c:	be 01       	movw	r22, r28
     91e:	6f 5f       	subi	r22, 0xFF	; 255
     920:	7f 4f       	sbci	r23, 0xFF	; 255
     922:	c4 01       	movw	r24, r8
     924:	0e 94 f0 1f 	call	0x3fe0	; 0x3fe0 <itoa>
				if (aWord<10)
     928:	fa e0       	ldi	r31, 0x0A	; 10
     92a:	8f 16       	cp	r8, r31
     92c:	91 04       	cpc	r9, r1
     92e:	50 f4       	brcc	.+20     	; 0x944 <alpha_updateScreen+0x2d4>
				{
					displayWriteChar(' ');
     930:	80 e2       	ldi	r24, 0x20	; 32
     932:	0e 94 d9 16 	call	0x2db2	; 0x2db2 <displayWriteChar>
					displayWriteChar(' ');
     936:	80 e2       	ldi	r24, 0x20	; 32
     938:	0e 94 d9 16 	call	0x2db2	; 0x2db2 <displayWriteChar>
					displayWriteChar(string[0]);
     93c:	89 81       	ldd	r24, Y+1	; 0x01
     93e:	0e 94 d9 16 	call	0x2db2	; 0x2db2 <displayWriteChar>
     942:	17 c0       	rjmp	.+46     	; 0x972 <alpha_updateScreen+0x302>
				}
				else if (aWord<100)
     944:	84 e6       	ldi	r24, 0x64	; 100
     946:	88 16       	cp	r8, r24
     948:	91 04       	cpc	r9, r1
     94a:	50 f4       	brcc	.+20     	; 0x960 <alpha_updateScreen+0x2f0>
				{
					displayWriteChar(' ');
     94c:	80 e2       	ldi	r24, 0x20	; 32
     94e:	0e 94 d9 16 	call	0x2db2	; 0x2db2 <displayWriteChar>
					displayWriteChar(string[0]);
     952:	89 81       	ldd	r24, Y+1	; 0x01
     954:	0e 94 d9 16 	call	0x2db2	; 0x2db2 <displayWriteChar>
					displayWriteChar(string[1]);
     958:	8a 81       	ldd	r24, Y+2	; 0x02
     95a:	0e 94 d9 16 	call	0x2db2	; 0x2db2 <displayWriteChar>
     95e:	09 c0       	rjmp	.+18     	; 0x972 <alpha_updateScreen+0x302>
				}
				else
				{
					displayWriteChar(string[0]);
     960:	89 81       	ldd	r24, Y+1	; 0x01
     962:	0e 94 d9 16 	call	0x2db2	; 0x2db2 <displayWriteChar>
					displayWriteChar(string[1]);
     966:	8a 81       	ldd	r24, Y+2	; 0x02
     968:	0e 94 d9 16 	call	0x2db2	; 0x2db2 <displayWriteChar>
					displayWriteChar(string[2]);
     96c:	8b 81       	ldd	r24, Y+3	; 0x03
     96e:	0e 94 d9 16 	call	0x2db2	; 0x2db2 <displayWriteChar>
				}
				i+=2;
     972:	73 94       	inc	r7
     974:	73 94       	inc	r7
				break;
     976:	a5 c0       	rjmp	.+330    	; 0xac2 <alpha_updateScreen+0x452>
			
			case 197:			// insert RPM
				index = (*(contant+i+1))-1;
     978:	f5 01       	movw	r30, r10
     97a:	e2 0f       	add	r30, r18
     97c:	f3 1f       	adc	r31, r19
     97e:	81 81       	ldd	r24, Z+1	; 0x01
     980:	81 50       	subi	r24, 0x01	; 1
				if (index > 3)	// check for correct index
     982:	84 30       	cpi	r24, 0x04	; 4
     984:	08 f0       	brcs	.+2      	; 0x988 <alpha_updateScreen+0x318>
				{
					index = 0;
     986:	80 e0       	ldi	r24, 0x00	; 0
				}
				aWord = (*(channels+index)).rpm;
     988:	90 e0       	ldi	r25, 0x00	; 0
     98a:	fc 01       	movw	r30, r24
     98c:	ee 0f       	add	r30, r30
     98e:	ff 1f       	adc	r31, r31
     990:	ee 0f       	add	r30, r30
     992:	ff 1f       	adc	r31, r31
     994:	8e 0f       	add	r24, r30
     996:	9f 1f       	adc	r25, r31
     998:	f6 01       	movw	r30, r12
     99a:	e8 0f       	add	r30, r24
     99c:	f9 1f       	adc	r31, r25
     99e:	80 80       	ld	r8, Z
     9a0:	91 80       	ldd	r9, Z+1	; 0x01
				itoa((aWord),string,10);
     9a2:	4a e0       	ldi	r20, 0x0A	; 10
     9a4:	50 e0       	ldi	r21, 0x00	; 0
     9a6:	be 01       	movw	r22, r28
     9a8:	6f 5f       	subi	r22, 0xFF	; 255
     9aa:	7f 4f       	sbci	r23, 0xFF	; 255
     9ac:	c4 01       	movw	r24, r8
     9ae:	0e 94 f0 1f 	call	0x3fe0	; 0x3fe0 <itoa>
				if (aWord<10)
     9b2:	ea e0       	ldi	r30, 0x0A	; 10
     9b4:	8e 16       	cp	r8, r30
     9b6:	91 04       	cpc	r9, r1
     9b8:	68 f4       	brcc	.+26     	; 0x9d4 <alpha_updateScreen+0x364>
				{
					displayWriteChar(' ');
     9ba:	80 e2       	ldi	r24, 0x20	; 32
     9bc:	0e 94 d9 16 	call	0x2db2	; 0x2db2 <displayWriteChar>
					displayWriteChar(' ');
     9c0:	80 e2       	ldi	r24, 0x20	; 32
     9c2:	0e 94 d9 16 	call	0x2db2	; 0x2db2 <displayWriteChar>
					displayWriteChar(' ');
     9c6:	80 e2       	ldi	r24, 0x20	; 32
     9c8:	0e 94 d9 16 	call	0x2db2	; 0x2db2 <displayWriteChar>
					displayWriteChar(string[0]);
     9cc:	89 81       	ldd	r24, Y+1	; 0x01
     9ce:	0e 94 d9 16 	call	0x2db2	; 0x2db2 <displayWriteChar>
     9d2:	2f c0       	rjmp	.+94     	; 0xa32 <alpha_updateScreen+0x3c2>
				}
				else if (aWord<100)
     9d4:	f4 e6       	ldi	r31, 0x64	; 100
     9d6:	8f 16       	cp	r8, r31
     9d8:	91 04       	cpc	r9, r1
     9da:	68 f4       	brcc	.+26     	; 0x9f6 <alpha_updateScreen+0x386>
				{
					displayWriteChar(' ');
     9dc:	80 e2       	ldi	r24, 0x20	; 32
     9de:	0e 94 d9 16 	call	0x2db2	; 0x2db2 <displayWriteChar>
					displayWriteChar(' ');
     9e2:	80 e2       	ldi	r24, 0x20	; 32
     9e4:	0e 94 d9 16 	call	0x2db2	; 0x2db2 <displayWriteChar>
					displayWriteChar(string[0]);
     9e8:	89 81       	ldd	r24, Y+1	; 0x01
     9ea:	0e 94 d9 16 	call	0x2db2	; 0x2db2 <displayWriteChar>
					displayWriteChar(string[1]);
     9ee:	8a 81       	ldd	r24, Y+2	; 0x02
     9f0:	0e 94 d9 16 	call	0x2db2	; 0x2db2 <displayWriteChar>
     9f4:	1e c0       	rjmp	.+60     	; 0xa32 <alpha_updateScreen+0x3c2>
				}
				else if (aWord<1000)
     9f6:	88 ee       	ldi	r24, 0xE8	; 232
     9f8:	88 16       	cp	r8, r24
     9fa:	83 e0       	ldi	r24, 0x03	; 3
     9fc:	98 06       	cpc	r9, r24
     9fe:	68 f4       	brcc	.+26     	; 0xa1a <alpha_updateScreen+0x3aa>
				{
					displayWriteChar(' ');
     a00:	80 e2       	ldi	r24, 0x20	; 32
     a02:	0e 94 d9 16 	call	0x2db2	; 0x2db2 <displayWriteChar>
					displayWriteChar(string[0]);
     a06:	89 81       	ldd	r24, Y+1	; 0x01
     a08:	0e 94 d9 16 	call	0x2db2	; 0x2db2 <displayWriteChar>
					displayWriteChar(string[1]);
     a0c:	8a 81       	ldd	r24, Y+2	; 0x02
     a0e:	0e 94 d9 16 	call	0x2db2	; 0x2db2 <displayWriteChar>
					displayWriteChar(string[2]);
     a12:	8b 81       	ldd	r24, Y+3	; 0x03
     a14:	0e 94 d9 16 	call	0x2db2	; 0x2db2 <displayWriteChar>
     a18:	0c c0       	rjmp	.+24     	; 0xa32 <alpha_updateScreen+0x3c2>
				}
				else
				{
					displayWriteChar(string[0]);
     a1a:	89 81       	ldd	r24, Y+1	; 0x01
     a1c:	0e 94 d9 16 	call	0x2db2	; 0x2db2 <displayWriteChar>
					displayWriteChar(string[1]);
     a20:	8a 81       	ldd	r24, Y+2	; 0x02
     a22:	0e 94 d9 16 	call	0x2db2	; 0x2db2 <displayWriteChar>
					displayWriteChar(string[2]);
     a26:	8b 81       	ldd	r24, Y+3	; 0x03
     a28:	0e 94 d9 16 	call	0x2db2	; 0x2db2 <displayWriteChar>
					displayWriteChar(string[3]);
     a2c:	8c 81       	ldd	r24, Y+4	; 0x04
     a2e:	0e 94 d9 16 	call	0x2db2	; 0x2db2 <displayWriteChar>
				}
				i+=3;
     a32:	e3 e0       	ldi	r30, 0x03	; 3
     a34:	7e 0e       	add	r7, r30
				break;
     a36:	45 c0       	rjmp	.+138    	; 0xac2 <alpha_updateScreen+0x452>
			
			case 198:			// insert power
				index = (*(contant+i+1))-1;
     a38:	f5 01       	movw	r30, r10
     a3a:	e2 0f       	add	r30, r18
     a3c:	f3 1f       	adc	r31, r19
     a3e:	81 81       	ldd	r24, Z+1	; 0x01
     a40:	81 50       	subi	r24, 0x01	; 1
				if (index > 3)	// check for correct index
     a42:	84 30       	cpi	r24, 0x04	; 4
     a44:	08 f0       	brcs	.+2      	; 0xa48 <alpha_updateScreen+0x3d8>
				{
					index = 0;
     a46:	80 e0       	ldi	r24, 0x00	; 0
				}
				aByte = (*(channels+index)).power;
     a48:	90 e0       	ldi	r25, 0x00	; 0
     a4a:	fc 01       	movw	r30, r24
     a4c:	ee 0f       	add	r30, r30
     a4e:	ff 1f       	adc	r31, r31
     a50:	ee 0f       	add	r30, r30
     a52:	ff 1f       	adc	r31, r31
     a54:	8e 0f       	add	r24, r30
     a56:	9f 1f       	adc	r25, r31
     a58:	f6 01       	movw	r30, r12
     a5a:	e8 0f       	add	r30, r24
     a5c:	f9 1f       	adc	r31, r25
     a5e:	92 80       	ldd	r9, Z+2	; 0x02
				itoa((aByte),string,10);
     a60:	4a e0       	ldi	r20, 0x0A	; 10
     a62:	50 e0       	ldi	r21, 0x00	; 0
     a64:	be 01       	movw	r22, r28
     a66:	6f 5f       	subi	r22, 0xFF	; 255
     a68:	7f 4f       	sbci	r23, 0xFF	; 255
     a6a:	89 2d       	mov	r24, r9
     a6c:	90 e0       	ldi	r25, 0x00	; 0
     a6e:	0e 94 f0 1f 	call	0x3fe0	; 0x3fe0 <itoa>
				if (aByte<10)
     a72:	f9 e0       	ldi	r31, 0x09	; 9
     a74:	f9 15       	cp	r31, r9
     a76:	50 f0       	brcs	.+20     	; 0xa8c <alpha_updateScreen+0x41c>
				{
					displayWriteChar(' ');
     a78:	80 e2       	ldi	r24, 0x20	; 32
     a7a:	0e 94 d9 16 	call	0x2db2	; 0x2db2 <displayWriteChar>
					displayWriteChar(' ');
     a7e:	80 e2       	ldi	r24, 0x20	; 32
     a80:	0e 94 d9 16 	call	0x2db2	; 0x2db2 <displayWriteChar>
					displayWriteChar(string[0]);
     a84:	89 81       	ldd	r24, Y+1	; 0x01
     a86:	0e 94 d9 16 	call	0x2db2	; 0x2db2 <displayWriteChar>
     a8a:	16 c0       	rjmp	.+44     	; 0xab8 <alpha_updateScreen+0x448>
				}
				else if (aByte<100)
     a8c:	83 e6       	ldi	r24, 0x63	; 99
     a8e:	89 15       	cp	r24, r9
     a90:	50 f0       	brcs	.+20     	; 0xaa6 <alpha_updateScreen+0x436>
				{
					displayWriteChar(' ');
     a92:	80 e2       	ldi	r24, 0x20	; 32
     a94:	0e 94 d9 16 	call	0x2db2	; 0x2db2 <displayWriteChar>
					displayWriteChar(string[0]);
     a98:	89 81       	ldd	r24, Y+1	; 0x01
     a9a:	0e 94 d9 16 	call	0x2db2	; 0x2db2 <displayWriteChar>
					displayWriteChar(string[1]);
     a9e:	8a 81       	ldd	r24, Y+2	; 0x02
     aa0:	0e 94 d9 16 	call	0x2db2	; 0x2db2 <displayWriteChar>
     aa4:	09 c0       	rjmp	.+18     	; 0xab8 <alpha_updateScreen+0x448>
				}
				else
				{
					displayWriteChar(string[0]);
     aa6:	89 81       	ldd	r24, Y+1	; 0x01
     aa8:	0e 94 d9 16 	call	0x2db2	; 0x2db2 <displayWriteChar>
					displayWriteChar(string[1]);
     aac:	8a 81       	ldd	r24, Y+2	; 0x02
     aae:	0e 94 d9 16 	call	0x2db2	; 0x2db2 <displayWriteChar>
					displayWriteChar(string[2]);
     ab2:	8b 81       	ldd	r24, Y+3	; 0x03
     ab4:	0e 94 d9 16 	call	0x2db2	; 0x2db2 <displayWriteChar>
				}
				i+=2;		
     ab8:	73 94       	inc	r7
     aba:	73 94       	inc	r7
				break;
     abc:	02 c0       	rjmp	.+4      	; 0xac2 <alpha_updateScreen+0x452>
			
			default:
				displayWriteChar(*(contant+i));		
     abe:	0e 94 d9 16 	call	0x2db2	; 0x2db2 <displayWriteChar>
		screen = MAXSCREEN;
	}
	
	displaySetCursor(0);		// faster as displayHome()
	
	for (i=(screen*CHARS);i<((screen+1)*CHARS);i++)
     ac2:	73 94       	inc	r7
     ac4:	87 2d       	mov	r24, r7
     ac6:	90 e0       	ldi	r25, 0x00	; 0
     ac8:	8e 15       	cp	r24, r14
     aca:	9f 05       	cpc	r25, r15
     acc:	0c f4       	brge	.+2      	; 0xad0 <alpha_updateScreen+0x460>
     ace:	07 ce       	rjmp	.-1010   	; 0x6de <alpha_updateScreen+0x6e>
			default:
				displayWriteChar(*(contant+i));		
				break;
		}		
	}	
}
     ad0:	2a 96       	adiw	r28, 0x0a	; 10
     ad2:	cd bf       	out	0x3d, r28	; 61
     ad4:	de bf       	out	0x3e, r29	; 62
     ad6:	df 91       	pop	r29
     ad8:	cf 91       	pop	r28
     ada:	1f 91       	pop	r17
     adc:	0f 91       	pop	r16
     ade:	ff 90       	pop	r15
     ae0:	ef 90       	pop	r14
     ae2:	df 90       	pop	r13
     ae4:	cf 90       	pop	r12
     ae6:	bf 90       	pop	r11
     ae8:	af 90       	pop	r10
     aea:	9f 90       	pop	r9
     aec:	8f 90       	pop	r8
     aee:	7f 90       	pop	r7
     af0:	5f 90       	pop	r5
     af2:	4f 90       	pop	r4
     af4:	3f 90       	pop	r3
     af6:	2f 90       	pop	r2
     af8:	08 95       	ret

00000afa <alpha_displayAlert>:

void alpha_displayAlert(ALERTSTATUS alert_status)
{
     afa:	0f 93       	push	r16
     afc:	1f 93       	push	r17
     afe:	cf 93       	push	r28
     b00:	df 93       	push	r29
     b02:	c6 2f       	mov	r28, r22
     b04:	07 2f       	mov	r16, r23
     b06:	18 2f       	mov	r17, r24
     b08:	d9 2f       	mov	r29, r25
	displaySetCursor(0);		// faster as displayHome()
     b0a:	80 e0       	ldi	r24, 0x00	; 0
     b0c:	0e 94 d2 16 	call	0x2da4	; 0x2da4 <displaySetCursor>
	uint8_t k;
	if (alert_status.overtemp)
     b10:	cc 23       	and	r28, r28
     b12:	89 f1       	breq	.+98     	; 0xb76 <alpha_displayAlert+0x7c>
	{
		displayWriteChar('o');
     b14:	8f e6       	ldi	r24, 0x6F	; 111
     b16:	0e 94 d9 16 	call	0x2db2	; 0x2db2 <displayWriteChar>
		displayWriteChar('v');
     b1a:	86 e7       	ldi	r24, 0x76	; 118
     b1c:	0e 94 d9 16 	call	0x2db2	; 0x2db2 <displayWriteChar>
		displayWriteChar('e');
     b20:	85 e6       	ldi	r24, 0x65	; 101
     b22:	0e 94 d9 16 	call	0x2db2	; 0x2db2 <displayWriteChar>
		displayWriteChar('r');
     b26:	82 e7       	ldi	r24, 0x72	; 114
     b28:	0e 94 d9 16 	call	0x2db2	; 0x2db2 <displayWriteChar>
		displayWriteChar(' ');
     b2c:	80 e2       	ldi	r24, 0x20	; 32
     b2e:	0e 94 d9 16 	call	0x2db2	; 0x2db2 <displayWriteChar>
		displayWriteChar('t');
     b32:	84 e7       	ldi	r24, 0x74	; 116
     b34:	0e 94 d9 16 	call	0x2db2	; 0x2db2 <displayWriteChar>
		displayWriteChar('e');
     b38:	85 e6       	ldi	r24, 0x65	; 101
     b3a:	0e 94 d9 16 	call	0x2db2	; 0x2db2 <displayWriteChar>
		displayWriteChar('m');
     b3e:	8d e6       	ldi	r24, 0x6D	; 109
     b40:	0e 94 d9 16 	call	0x2db2	; 0x2db2 <displayWriteChar>
		displayWriteChar('p');
     b44:	80 e7       	ldi	r24, 0x70	; 112
     b46:	0e 94 d9 16 	call	0x2db2	; 0x2db2 <displayWriteChar>
		displayWriteChar('e');
     b4a:	85 e6       	ldi	r24, 0x65	; 101
     b4c:	0e 94 d9 16 	call	0x2db2	; 0x2db2 <displayWriteChar>
		displayWriteChar('r');
     b50:	82 e7       	ldi	r24, 0x72	; 114
     b52:	0e 94 d9 16 	call	0x2db2	; 0x2db2 <displayWriteChar>
		displayWriteChar('a');
     b56:	81 e6       	ldi	r24, 0x61	; 97
     b58:	0e 94 d9 16 	call	0x2db2	; 0x2db2 <displayWriteChar>
		displayWriteChar('t');
     b5c:	84 e7       	ldi	r24, 0x74	; 116
     b5e:	0e 94 d9 16 	call	0x2db2	; 0x2db2 <displayWriteChar>
		displayWriteChar('u');
     b62:	85 e7       	ldi	r24, 0x75	; 117
     b64:	0e 94 d9 16 	call	0x2db2	; 0x2db2 <displayWriteChar>
		displayWriteChar('r');
     b68:	82 e7       	ldi	r24, 0x72	; 114
     b6a:	0e 94 d9 16 	call	0x2db2	; 0x2db2 <displayWriteChar>
		displayWriteChar('e');	
     b6e:	85 e6       	ldi	r24, 0x65	; 101
     b70:	0e 94 d9 16 	call	0x2db2	; 0x2db2 <displayWriteChar>
     b74:	06 c0       	rjmp	.+12     	; 0xb82 <alpha_displayAlert+0x88>

void alpha_displayAlert(ALERTSTATUS alert_status)
{
	displaySetCursor(0);		// faster as displayHome()
	uint8_t k;
	if (alert_status.overtemp)
     b76:	c0 e1       	ldi	r28, 0x10	; 16
	}
	else
	{
		for (k=0;k<16;k++)
		{
			displayWriteChar(' ');
     b78:	80 e2       	ldi	r24, 0x20	; 32
     b7a:	0e 94 d9 16 	call	0x2db2	; 0x2db2 <displayWriteChar>
     b7e:	c1 50       	subi	r28, 0x01	; 1
		displayWriteChar('r');
		displayWriteChar('e');	
	}
	else
	{
		for (k=0;k<16;k++)
     b80:	d9 f7       	brne	.-10     	; 0xb78 <alpha_displayAlert+0x7e>
		{
			displayWriteChar(' ');
		}
	}
	if (alert_status.fanblock)
     b82:	00 23       	and	r16, r16
     b84:	89 f1       	breq	.+98     	; 0xbe8 <alpha_displayAlert+0xee>
	{
		displayWriteChar(' ');
     b86:	80 e2       	ldi	r24, 0x20	; 32
     b88:	0e 94 d9 16 	call	0x2db2	; 0x2db2 <displayWriteChar>
		displayWriteChar(' ');
     b8c:	80 e2       	ldi	r24, 0x20	; 32
     b8e:	0e 94 d9 16 	call	0x2db2	; 0x2db2 <displayWriteChar>
		displayWriteChar('f');
     b92:	86 e6       	ldi	r24, 0x66	; 102
     b94:	0e 94 d9 16 	call	0x2db2	; 0x2db2 <displayWriteChar>
		displayWriteChar('a');
     b98:	81 e6       	ldi	r24, 0x61	; 97
     b9a:	0e 94 d9 16 	call	0x2db2	; 0x2db2 <displayWriteChar>
		displayWriteChar('n');
     b9e:	8e e6       	ldi	r24, 0x6E	; 110
     ba0:	0e 94 d9 16 	call	0x2db2	; 0x2db2 <displayWriteChar>
		displayWriteChar(' ');
     ba4:	80 e2       	ldi	r24, 0x20	; 32
     ba6:	0e 94 d9 16 	call	0x2db2	; 0x2db2 <displayWriteChar>
		displayWriteChar('b');
     baa:	82 e6       	ldi	r24, 0x62	; 98
     bac:	0e 94 d9 16 	call	0x2db2	; 0x2db2 <displayWriteChar>
		displayWriteChar('l');
     bb0:	8c e6       	ldi	r24, 0x6C	; 108
     bb2:	0e 94 d9 16 	call	0x2db2	; 0x2db2 <displayWriteChar>
		displayWriteChar('o');
     bb6:	8f e6       	ldi	r24, 0x6F	; 111
     bb8:	0e 94 d9 16 	call	0x2db2	; 0x2db2 <displayWriteChar>
		displayWriteChar('c');
     bbc:	83 e6       	ldi	r24, 0x63	; 99
     bbe:	0e 94 d9 16 	call	0x2db2	; 0x2db2 <displayWriteChar>
		displayWriteChar('k');
     bc2:	8b e6       	ldi	r24, 0x6B	; 107
     bc4:	0e 94 d9 16 	call	0x2db2	; 0x2db2 <displayWriteChar>
		displayWriteChar('e');
     bc8:	85 e6       	ldi	r24, 0x65	; 101
     bca:	0e 94 d9 16 	call	0x2db2	; 0x2db2 <displayWriteChar>
		displayWriteChar('d');
     bce:	84 e6       	ldi	r24, 0x64	; 100
     bd0:	0e 94 d9 16 	call	0x2db2	; 0x2db2 <displayWriteChar>
		displayWriteChar(' ');
     bd4:	80 e2       	ldi	r24, 0x20	; 32
     bd6:	0e 94 d9 16 	call	0x2db2	; 0x2db2 <displayWriteChar>
		displayWriteChar(' ');
     bda:	80 e2       	ldi	r24, 0x20	; 32
     bdc:	0e 94 d9 16 	call	0x2db2	; 0x2db2 <displayWriteChar>
		displayWriteChar(' ');
     be0:	80 e2       	ldi	r24, 0x20	; 32
     be2:	0e 94 d9 16 	call	0x2db2	; 0x2db2 <displayWriteChar>
     be6:	06 c0       	rjmp	.+12     	; 0xbf4 <alpha_displayAlert+0xfa>
		for (k=0;k<16;k++)
		{
			displayWriteChar(' ');
		}
	}
	if (alert_status.fanblock)
     be8:	c0 e1       	ldi	r28, 0x10	; 16
	}
	else
	{
		for (k=0;k<16;k++)
		{
			displayWriteChar(' ');
     bea:	80 e2       	ldi	r24, 0x20	; 32
     bec:	0e 94 d9 16 	call	0x2db2	; 0x2db2 <displayWriteChar>
     bf0:	c1 50       	subi	r28, 0x01	; 1
		displayWriteChar(' ');
		displayWriteChar(' ');
	}
	else
	{
		for (k=0;k<16;k++)
     bf2:	d9 f7       	brne	.-10     	; 0xbea <alpha_displayAlert+0xf0>
		{
			displayWriteChar(' ');
		}
	}
	if (alert_status.lowWaterFlow)
     bf4:	21 2f       	mov	r18, r17
     bf6:	3d 2f       	mov	r19, r29
     bf8:	23 2b       	or	r18, r19
     bfa:	89 f1       	breq	.+98     	; 0xc5e <alpha_displayAlert+0x164>
	{
		displayWriteChar(' ');
     bfc:	80 e2       	ldi	r24, 0x20	; 32
     bfe:	0e 94 d9 16 	call	0x2db2	; 0x2db2 <displayWriteChar>
		displayWriteChar(' ');
     c02:	80 e2       	ldi	r24, 0x20	; 32
     c04:	0e 94 d9 16 	call	0x2db2	; 0x2db2 <displayWriteChar>
		displayWriteChar('l');
     c08:	8c e6       	ldi	r24, 0x6C	; 108
     c0a:	0e 94 d9 16 	call	0x2db2	; 0x2db2 <displayWriteChar>
		displayWriteChar('o');
     c0e:	8f e6       	ldi	r24, 0x6F	; 111
     c10:	0e 94 d9 16 	call	0x2db2	; 0x2db2 <displayWriteChar>
		displayWriteChar('w');
     c14:	87 e7       	ldi	r24, 0x77	; 119
     c16:	0e 94 d9 16 	call	0x2db2	; 0x2db2 <displayWriteChar>
		displayWriteChar(' ');
     c1a:	80 e2       	ldi	r24, 0x20	; 32
     c1c:	0e 94 d9 16 	call	0x2db2	; 0x2db2 <displayWriteChar>
		displayWriteChar('f');
     c20:	86 e6       	ldi	r24, 0x66	; 102
     c22:	0e 94 d9 16 	call	0x2db2	; 0x2db2 <displayWriteChar>
		displayWriteChar('l');
     c26:	8c e6       	ldi	r24, 0x6C	; 108
     c28:	0e 94 d9 16 	call	0x2db2	; 0x2db2 <displayWriteChar>
		displayWriteChar('o');
     c2c:	8f e6       	ldi	r24, 0x6F	; 111
     c2e:	0e 94 d9 16 	call	0x2db2	; 0x2db2 <displayWriteChar>
		displayWriteChar('w');
     c32:	87 e7       	ldi	r24, 0x77	; 119
     c34:	0e 94 d9 16 	call	0x2db2	; 0x2db2 <displayWriteChar>
		displayWriteChar(' ');
     c38:	80 e2       	ldi	r24, 0x20	; 32
     c3a:	0e 94 d9 16 	call	0x2db2	; 0x2db2 <displayWriteChar>
		displayWriteChar('r');
     c3e:	82 e7       	ldi	r24, 0x72	; 114
     c40:	0e 94 d9 16 	call	0x2db2	; 0x2db2 <displayWriteChar>
		displayWriteChar('a');
     c44:	81 e6       	ldi	r24, 0x61	; 97
     c46:	0e 94 d9 16 	call	0x2db2	; 0x2db2 <displayWriteChar>
		displayWriteChar('t');
     c4a:	84 e7       	ldi	r24, 0x74	; 116
     c4c:	0e 94 d9 16 	call	0x2db2	; 0x2db2 <displayWriteChar>
		displayWriteChar('e');
     c50:	85 e6       	ldi	r24, 0x65	; 101
     c52:	0e 94 d9 16 	call	0x2db2	; 0x2db2 <displayWriteChar>
		displayWriteChar(' ');
     c56:	80 e2       	ldi	r24, 0x20	; 32
     c58:	0e 94 d9 16 	call	0x2db2	; 0x2db2 <displayWriteChar>
     c5c:	06 c0       	rjmp	.+12     	; 0xc6a <alpha_displayAlert+0x170>
		for (k=0;k<16;k++)
		{
			displayWriteChar(' ');
		}
	}
	if (alert_status.lowWaterFlow)
     c5e:	c0 e1       	ldi	r28, 0x10	; 16
	}
	else
	{
		for (k=0;k<16;k++)
		{
			displayWriteChar(' ');
     c60:	80 e2       	ldi	r24, 0x20	; 32
     c62:	0e 94 d9 16 	call	0x2db2	; 0x2db2 <displayWriteChar>
     c66:	c1 50       	subi	r28, 0x01	; 1
		displayWriteChar('e');
		displayWriteChar(' ');
	}
	else
	{
		for (k=0;k<16;k++)
     c68:	d9 f7       	brne	.-10     	; 0xc60 <alpha_displayAlert+0x166>
		{
			displayWriteChar(' ');
		}
	}
	
}
     c6a:	df 91       	pop	r29
     c6c:	cf 91       	pop	r28
     c6e:	1f 91       	pop	r17
     c70:	0f 91       	pop	r16
     c72:	08 95       	ret

00000c74 <alpha_displayOverlayMessage>:

void alpha_displayOverlayMessage(char *aString)
{
     c74:	af 92       	push	r10
     c76:	bf 92       	push	r11
     c78:	cf 92       	push	r12
     c7a:	df 92       	push	r13
     c7c:	ef 92       	push	r14
     c7e:	ff 92       	push	r15
     c80:	0f 93       	push	r16
     c82:	1f 93       	push	r17
     c84:	cf 93       	push	r28
     c86:	df 93       	push	r29
     c88:	d8 2e       	mov	r13, r24
     c8a:	c9 2e       	mov	r12, r25
	uint8_t length = strlen(aString);
     c8c:	e8 2f       	mov	r30, r24
     c8e:	f9 2f       	mov	r31, r25
     c90:	df 01       	movw	r26, r30
     c92:	0d 90       	ld	r0, X+
     c94:	00 20       	and	r0, r0
     c96:	e9 f7       	brne	.-6      	; 0xc92 <alpha_displayOverlayMessage+0x1e>
     c98:	11 97       	sbiw	r26, 0x01	; 1
     c9a:	8d 01       	movw	r16, r26
     c9c:	0e 1b       	sub	r16, r30
     c9e:	1f 0b       	sbc	r17, r31
     ca0:	b0 2e       	mov	r11, r16
	uint8_t k;
	
	displaySetCursor(0);		// faster as displayHome()
     ca2:	80 e0       	ldi	r24, 0x00	; 0
     ca4:	0e 94 d2 16 	call	0x2da4	; 0x2da4 <displaySetCursor>
	
	if (length <= CHARS)
     ca8:	80 e3       	ldi	r24, 0x30	; 48
     caa:	80 17       	cp	r24, r16
     cac:	98 f1       	brcs	.+102    	; 0xd14 <alpha_displayOverlayMessage+0xa0>
	{
		uint8_t spaces = (CHARS - length)/2;
     cae:	c0 e3       	ldi	r28, 0x30	; 48
     cb0:	d0 e0       	ldi	r29, 0x00	; 0
     cb2:	ce 01       	movw	r24, r28
     cb4:	80 1b       	sub	r24, r16
     cb6:	91 09       	sbc	r25, r1
     cb8:	8c 01       	movw	r16, r24
     cba:	7c 01       	movw	r14, r24
     cbc:	1a f4       	brpl	.+6      	; 0xcc4 <alpha_displayOverlayMessage+0x50>
     cbe:	9f ef       	ldi	r25, 0xFF	; 255
     cc0:	e9 1a       	sub	r14, r25
     cc2:	f9 0a       	sbc	r15, r25
     cc4:	f5 94       	asr	r15
     cc6:	e7 94       	ror	r14
     cc8:	de 2d       	mov	r29, r14
		
		for (k=0;k<spaces;k++)
     cca:	ee 20       	and	r14, r14
     ccc:	39 f0       	breq	.+14     	; 0xcdc <alpha_displayOverlayMessage+0x68>
     cce:	c0 e0       	ldi	r28, 0x00	; 0
		{
			displayWriteChar(' ');
     cd0:	80 e2       	ldi	r24, 0x20	; 32
     cd2:	0e 94 d9 16 	call	0x2db2	; 0x2db2 <displayWriteChar>
	
	if (length <= CHARS)
	{
		uint8_t spaces = (CHARS - length)/2;
		
		for (k=0;k<spaces;k++)
     cd6:	cf 5f       	subi	r28, 0xFF	; 255
     cd8:	cd 17       	cp	r28, r29
     cda:	d0 f3       	brcs	.-12     	; 0xcd0 <alpha_displayOverlayMessage+0x5c>
		{
			displayWriteChar(' ');
		}
		
		for (k=0;k<length;k++)
     cdc:	bb 20       	and	r11, r11
     cde:	51 f0       	breq	.+20     	; 0xcf4 <alpha_displayOverlayMessage+0x80>
     ce0:	ad 2c       	mov	r10, r13
     ce2:	cd 2d       	mov	r28, r13
     ce4:	dc 2d       	mov	r29, r12
		{
			displayWriteChar(*(aString+k));
     ce6:	89 91       	ld	r24, Y+
     ce8:	0e 94 d9 16 	call	0x2db2	; 0x2db2 <displayWriteChar>
		for (k=0;k<spaces;k++)
		{
			displayWriteChar(' ');
		}
		
		for (k=0;k<length;k++)
     cec:	8c 2f       	mov	r24, r28
     cee:	8a 19       	sub	r24, r10
     cf0:	8b 15       	cp	r24, r11
     cf2:	c8 f3       	brcs	.-14     	; 0xce6 <alpha_displayOverlayMessage+0x72>
		{
			displayWriteChar(*(aString+k));
		}
		
		for (k=0;k<(CHARS-length-spaces);k++)
     cf4:	e8 01       	movw	r28, r16
     cf6:	ce 19       	sub	r28, r14
     cf8:	d1 09       	sbc	r29, r1
     cfa:	1c 16       	cp	r1, r28
     cfc:	1d 06       	cpc	r1, r29
     cfe:	54 f4       	brge	.+20     	; 0xd14 <alpha_displayOverlayMessage+0xa0>
     d00:	10 e0       	ldi	r17, 0x00	; 0
		{
			displayWriteChar(' ');
     d02:	80 e2       	ldi	r24, 0x20	; 32
     d04:	0e 94 d9 16 	call	0x2db2	; 0x2db2 <displayWriteChar>
		for (k=0;k<length;k++)
		{
			displayWriteChar(*(aString+k));
		}
		
		for (k=0;k<(CHARS-length-spaces);k++)
     d08:	1f 5f       	subi	r17, 0xFF	; 255
     d0a:	81 2f       	mov	r24, r17
     d0c:	90 e0       	ldi	r25, 0x00	; 0
     d0e:	8c 17       	cp	r24, r28
     d10:	9d 07       	cpc	r25, r29
     d12:	bc f3       	brlt	.-18     	; 0xd02 <alpha_displayOverlayMessage+0x8e>
		{
			displayWriteChar(' ');
		}		
	}	
}
     d14:	df 91       	pop	r29
     d16:	cf 91       	pop	r28
     d18:	1f 91       	pop	r17
     d1a:	0f 91       	pop	r16
     d1c:	ff 90       	pop	r15
     d1e:	ef 90       	pop	r14
     d20:	df 90       	pop	r13
     d22:	cf 90       	pop	r12
     d24:	bf 90       	pop	r11
     d26:	af 90       	pop	r10
     d28:	08 95       	ret

00000d2a <clk_init>:


// This function set the system clock to 32 MHz with automatic calibration.
void clk_init(void)
{	
	OSC_CTRL |= (OSC_RC32MEN_bm | OSC_RC32KEN_bm);			// start 32 MHz and 32 kHz oscillator
     d2a:	e0 e5       	ldi	r30, 0x50	; 80
     d2c:	f0 e0       	ldi	r31, 0x00	; 0
     d2e:	80 81       	ld	r24, Z
     d30:	86 60       	ori	r24, 0x06	; 6
     d32:	80 83       	st	Z, r24
		
	while(!(OSC_STATUS & OSC_RC32MRDY_bm));					// wait until both oscillators are working stable
     d34:	e1 e5       	ldi	r30, 0x51	; 81
     d36:	f0 e0       	ldi	r31, 0x00	; 0
     d38:	80 81       	ld	r24, Z
     d3a:	81 ff       	sbrs	r24, 1
     d3c:	fd cf       	rjmp	.-6      	; 0xd38 <clk_init+0xe>
	while(!(OSC_STATUS & OSC_RC32KRDY_bm));	
     d3e:	e1 e5       	ldi	r30, 0x51	; 81
     d40:	f0 e0       	ldi	r31, 0x00	; 0
     d42:	80 81       	ld	r24, Z
     d44:	82 ff       	sbrs	r24, 2
     d46:	fd cf       	rjmp	.-6      	; 0xd42 <clk_init+0x18>
	
	OSC_DFLLCTRL = 0x00;									// use the 32 kHz oscillator for calibration
     d48:	10 92 56 00 	sts	0x0056, r1
		
	DFLLRC32M_CTRL = 0x01;									// activate automatic runtime calibration	
     d4c:	81 e0       	ldi	r24, 0x01	; 1
     d4e:	80 93 60 00 	sts	0x0060, r24
		
	CCP = CCP_IOREG_gc;										// save IO and interrupts for four clock cycles 
     d52:	98 ed       	ldi	r25, 0xD8	; 216
     d54:	94 bf       	out	0x34, r25	; 52
	
	CLK_CTRL = CLK_SCLKSEL_RC32M_gc;						// choose 32 MHz oscillator as clock source
     d56:	80 93 40 00 	sts	0x0040, r24
     d5a:	08 95       	ret

00000d5c <main>:
#include "EEPROM_data.h"
#include "AlphanumericDisplay.h"


int main(void)
{
     d5c:	cf 93       	push	r28
     d5e:	df 93       	push	r29
     d60:	cd b7       	in	r28, 0x3d	; 61
     d62:	de b7       	in	r29, 0x3e	; 62
     d64:	c2 58       	subi	r28, 0x82	; 130
     d66:	d2 40       	sbci	r29, 0x02	; 2
     d68:	cd bf       	out	0x3d, r28	; 61
     d6a:	de bf       	out	0x3e, r29	; 62
    clk_init();
     d6c:	0e 94 95 06 	call	0xd2a	; 0xd2a <clk_init>
	port_init();
     d70:	0e 94 12 17 	call	0x2e24	; 0x2e24 <port_init>
	serialport_init();
     d74:	0e 94 15 18 	call	0x302a	; 0x302a <serialport_init>
	timer_init();
     d78:	0e 94 87 1d 	call	0x3b0e	; 0x3b0e <timer_init>
	tempSensor_init();
     d7c:	0e 94 c0 1c 	call	0x3980	; 0x3980 <tempSensor_init>
	alpha_init();	
     d80:	0e 94 32 03 	call	0x664	; 0x664 <alpha_init>
	
	// activate all interrupt levels
	PMIC_CTRL |= PMIC_HILVLEN_bm|PMIC_MEDLVLEN_bm|PMIC_LOLVLEN_bm;
     d84:	e2 ea       	ldi	r30, 0xA2	; 162
     d86:	f0 e0       	ldi	r31, 0x00	; 0
     d88:	80 81       	ld	r24, Z
     d8a:	87 60       	ori	r24, 0x07	; 7
     d8c:	80 83       	st	Z, r24
	
	// activate interrupts
	sei();
     d8e:	78 94       	sei
	
	uint8_t temperature[24];			// the temperatures, actual only 0-7 are in use
	uint8_t spare_temperature[8];		// the spare values for the aida values (actual not in use)
	uint8_t spare_temperatureTimer = 5; // timeout timer for AIDA temperature (use spare values until values are older then 4 seconds)
	
	uint16_t literPerHour = 0;
     d90:	1e a2       	std	Y+38, r1	; 0x26
     d92:	1f a2       	std	Y+39, r1	; 0x27
	uint16_t ledCtr = 0;				// a rotary counter value for led sweep calculation, incremented every 100 ms
	
	ALERTDATA alert_data;				// data for alert
	ALERTSTATUS alert_status;			// actual status
	
	uint8_t time[3] = {0,0,0};			// = {h,m,s}
     d94:	c4 5e       	subi	r28, 0xE4	; 228
     d96:	de 4f       	sbci	r29, 0xFE	; 254
     d98:	18 82       	st	Y, r1
     d9a:	cc 51       	subi	r28, 0x1C	; 28
     d9c:	d1 40       	sbci	r29, 0x01	; 1
     d9e:	c3 5e       	subi	r28, 0xE3	; 227
     da0:	de 4f       	sbci	r29, 0xFE	; 254
     da2:	18 82       	st	Y, r1
     da4:	cd 51       	subi	r28, 0x1D	; 29
     da6:	d1 40       	sbci	r29, 0x01	; 1
     da8:	c2 5e       	subi	r28, 0xE2	; 226
     daa:	de 4f       	sbci	r29, 0xFE	; 254
     dac:	18 82       	st	Y, r1
     dae:	ce 51       	subi	r28, 0x1E	; 30
     db0:	d1 40       	sbci	r29, 0x01	; 1
	uint16_t pcStatus[4] = {0,0,0,0};	// = {CPU_CLK,CPU%,GPU%,RAM%}
     db2:	fe 01       	movw	r30, r28
     db4:	e1 5e       	subi	r30, 0xE1	; 225
     db6:	fe 4f       	sbci	r31, 0xFE	; 254
     db8:	88 e0       	ldi	r24, 0x08	; 8
     dba:	df 01       	movw	r26, r30
     dbc:	1d 92       	st	X+, r1
     dbe:	8a 95       	dec	r24
     dc0:	e9 f7       	brne	.-6      	; 0xdbc <main+0x60>
	
	uint16_t pulsePerLiter;
	
	if (eeprom_read_word(&eeprom_eepromVersionChecker) != EEPROMVERSION_BITS)			// EEPROM is not OK
     dc2:	8a e0       	ldi	r24, 0x0A	; 10
     dc4:	92 e0       	ldi	r25, 0x02	; 2
     dc6:	0e 94 1d 20 	call	0x403a	; 0x403a <__eerd_word_x32a4>
     dca:	81 30       	cpi	r24, 0x01	; 1
     dcc:	91 40       	sbci	r25, 0x01	; 1
     dce:	b9 f4       	brne	.+46     	; 0xdfe <main+0xa2>
     dd0:	7d c0       	rjmp	.+250    	; 0xecc <main+0x170>
#include "TempSensor.h"
#include "EEPROM_data.h"
#include "AlphanumericDisplay.h"


int main(void)
     dd2:	f8 01       	movw	r30, r16
     dd4:	e0 51       	subi	r30, 0x10	; 16
     dd6:	fc 4f       	sbci	r31, 0xFC	; 252
		
		for (j=0;j<NUMBEROFCHANNELS;j++)
		{
			for (i=0;i<sizeof(CHANNELDATA);i++)
			{
				eeprom_write_byte(((uint8_t *)&eeprom_channel_data[j])+i,pgm_read_byte(((uint8_t *)&default_channel_data)+i));
     dd8:	64 91       	lpm	r22, Z
     dda:	c6 01       	movw	r24, r12
     ddc:	80 0f       	add	r24, r16
     dde:	91 1f       	adc	r25, r17
     de0:	0e 94 33 20 	call	0x4066	; 0x4066 <__eewr_byte_x32a4>
     de4:	0f 5f       	subi	r16, 0xFF	; 255
     de6:	1f 4f       	sbci	r17, 0xFF	; 255
		
		//serialport_printf("#EEPROM FAILED, START TO OVERWRITE IT!#\r");
		
		for (j=0;j<NUMBEROFCHANNELS;j++)
		{
			for (i=0;i<sizeof(CHANNELDATA);i++)
     de8:	06 33       	cpi	r16, 0x36	; 54
     dea:	11 05       	cpc	r17, r1
     dec:	91 f7       	brne	.-28     	; 0xdd2 <main+0x76>
     dee:	ef ef       	ldi	r30, 0xFF	; 255
     df0:	ee 1a       	sub	r14, r30
     df2:	fe 0a       	sbc	r15, r30
	if (eeprom_read_word(&eeprom_eepromVersionChecker) != EEPROMVERSION_BITS)			// EEPROM is not OK
	{
		
		//serialport_printf("#EEPROM FAILED, START TO OVERWRITE IT!#\r");
		
		for (j=0;j<NUMBEROFCHANNELS;j++)
     df4:	f4 e0       	ldi	r31, 0x04	; 4
     df6:	ef 16       	cp	r14, r31
     df8:	f1 04       	cpc	r15, r1
     dfa:	39 f4       	brne	.+14     	; 0xe0a <main+0xae>
     dfc:	16 c0       	rjmp	.+44     	; 0xe2a <main+0xce>
	uint8_t time[3] = {0,0,0};			// = {h,m,s}
	uint16_t pcStatus[4] = {0,0,0,0};	// = {CPU_CLK,CPU%,GPU%,RAM%}
	
	uint16_t pulsePerLiter;
	
	if (eeprom_read_word(&eeprom_eepromVersionChecker) != EEPROMVERSION_BITS)			// EEPROM is not OK
     dfe:	e1 2c       	mov	r14, r1
     e00:	f1 2c       	mov	r15, r1
		
		for (j=0;j<NUMBEROFCHANNELS;j++)
		{
			for (i=0;i<sizeof(CHANNELDATA);i++)
			{
				eeprom_write_byte(((uint8_t *)&eeprom_channel_data[j])+i,pgm_read_byte(((uint8_t *)&default_channel_data)+i));
     e02:	0f 2e       	mov	r0, r31
     e04:	f6 e3       	ldi	r31, 0x36	; 54
     e06:	bf 2e       	mov	r11, r31
     e08:	f0 2d       	mov	r31, r0
#include "EEPROM_data.h"
#include "AlphanumericDisplay.h"


int main(void)
{
     e0a:	00 e0       	ldi	r16, 0x00	; 0
     e0c:	10 e0       	ldi	r17, 0x00	; 0
		
		for (j=0;j<NUMBEROFCHANNELS;j++)
		{
			for (i=0;i<sizeof(CHANNELDATA);i++)
			{
				eeprom_write_byte(((uint8_t *)&eeprom_channel_data[j])+i,pgm_read_byte(((uint8_t *)&default_channel_data)+i));
     e0e:	be 9c       	mul	r11, r14
     e10:	c0 01       	movw	r24, r0
     e12:	bf 9c       	mul	r11, r15
     e14:	90 0d       	add	r25, r0
     e16:	11 24       	eor	r1, r1
     e18:	0f 2e       	mov	r0, r31
     e1a:	f2 e3       	ldi	r31, 0x32	; 50
     e1c:	cf 2e       	mov	r12, r31
     e1e:	f1 e0       	ldi	r31, 0x01	; 1
     e20:	df 2e       	mov	r13, r31
     e22:	f0 2d       	mov	r31, r0
     e24:	c8 0e       	add	r12, r24
     e26:	d9 1e       	adc	r13, r25
     e28:	d4 cf       	rjmp	.-88     	; 0xdd2 <main+0x76>
	if (eeprom_read_word(&eeprom_eepromVersionChecker) != EEPROMVERSION_BITS)			// EEPROM is not OK
	{
		
		//serialport_printf("#EEPROM FAILED, START TO OVERWRITE IT!#\r");
		
		for (j=0;j<NUMBEROFCHANNELS;j++)
     e2a:	00 e0       	ldi	r16, 0x00	; 0
     e2c:	10 e0       	ldi	r17, 0x00	; 0
		
		// serialport_printf("#CHANNELS COMPLETE#\r");
		
		for (i=0;i<8;i++)
		{
			eeprom_write_byte((&eeprom_spare_temperature[i]),pgm_read_byte(&default_spare_temperature[i]));
     e2e:	f8 01       	movw	r30, r16
     e30:	e8 51       	subi	r30, 0x18	; 24
     e32:	fc 4f       	sbci	r31, 0xFC	; 252
     e34:	64 91       	lpm	r22, Z
     e36:	c8 01       	movw	r24, r16
     e38:	86 5d       	subi	r24, 0xD6	; 214
     e3a:	9e 4f       	sbci	r25, 0xFE	; 254
     e3c:	0e 94 33 20 	call	0x4066	; 0x4066 <__eewr_byte_x32a4>
     e40:	0f 5f       	subi	r16, 0xFF	; 255
     e42:	1f 4f       	sbci	r17, 0xFF	; 255
			}
		}
		
		// serialport_printf("#CHANNELS COMPLETE#\r");
		
		for (i=0;i<8;i++)
     e44:	08 30       	cpi	r16, 0x08	; 8
     e46:	11 05       	cpc	r17, r1
     e48:	91 f7       	brne	.-28     	; 0xe2e <main+0xd2>
     e4a:	00 e0       	ldi	r16, 0x00	; 0
     e4c:	10 e0       	ldi	r17, 0x00	; 0
#include "TempSensor.h"
#include "EEPROM_data.h"
#include "AlphanumericDisplay.h"


int main(void)
     e4e:	f8 01       	movw	r30, r16
     e50:	ec 51       	subi	r30, 0x1C	; 28
     e52:	fc 4f       	sbci	r31, 0xFC	; 252
		
		// serialport_printf("#SPARE TEMPERATURES COMPLETE#\r");
		
		for (i=0;i<sizeof(LEDDATA);i++)
		{
			eeprom_write_byte(((uint8_t *)&eeprom_led_data)+i,pgm_read_byte(((uint8_t *)&default_led_data)+i));
     e54:	64 91       	lpm	r22, Z
     e56:	c8 01       	movw	r24, r16
     e58:	8a 5d       	subi	r24, 0xDA	; 218
     e5a:	9e 4f       	sbci	r25, 0xFE	; 254
     e5c:	0e 94 33 20 	call	0x4066	; 0x4066 <__eewr_byte_x32a4>
     e60:	0f 5f       	subi	r16, 0xFF	; 255
     e62:	1f 4f       	sbci	r17, 0xFF	; 255
			eeprom_write_byte((&eeprom_spare_temperature[i]),pgm_read_byte(&default_spare_temperature[i]));
		}
		
		// serialport_printf("#SPARE TEMPERATURES COMPLETE#\r");
		
		for (i=0;i<sizeof(LEDDATA);i++)
     e64:	04 30       	cpi	r16, 0x04	; 4
     e66:	11 05       	cpc	r17, r1
     e68:	91 f7       	brne	.-28     	; 0xe4e <main+0xf2>
     e6a:	00 e0       	ldi	r16, 0x00	; 0
     e6c:	10 e0       	ldi	r17, 0x00	; 0
#include "TempSensor.h"
#include "EEPROM_data.h"
#include "AlphanumericDisplay.h"


int main(void)
     e6e:	f8 01       	movw	r30, r16
     e70:	e0 52       	subi	r30, 0x20	; 32
     e72:	fc 4f       	sbci	r31, 0xFC	; 252
		
		// serialport_printf("#LED COMPLETE#\r");
		
		for (i=0;i<sizeof(ALERTDATA);i++)
		{
			eeprom_write_byte(((uint8_t *)&eeprom_alert_data)+i,pgm_read_byte(((uint8_t *)&default_alert_data)+i));
     e74:	64 91       	lpm	r22, Z
     e76:	c8 01       	movw	r24, r16
     e78:	8e 5d       	subi	r24, 0xDE	; 222
     e7a:	9e 4f       	sbci	r25, 0xFE	; 254
     e7c:	0e 94 33 20 	call	0x4066	; 0x4066 <__eewr_byte_x32a4>
     e80:	0f 5f       	subi	r16, 0xFF	; 255
     e82:	1f 4f       	sbci	r17, 0xFF	; 255
			eeprom_write_byte(((uint8_t *)&eeprom_led_data)+i,pgm_read_byte(((uint8_t *)&default_led_data)+i));
		}
		
		// serialport_printf("#LED COMPLETE#\r");
		
		for (i=0;i<sizeof(ALERTDATA);i++)
     e84:	04 30       	cpi	r16, 0x04	; 4
     e86:	11 05       	cpc	r17, r1
     e88:	91 f7       	brne	.-28     	; 0xe6e <main+0x112>
			eeprom_write_byte(((uint8_t *)&eeprom_alert_data)+i,pgm_read_byte(((uint8_t *)&default_alert_data)+i));
		}
		
		// serialport_printf("#ALERT COMPLETE#\r");
		
		eeprom_write_word(&eeprom_pulsePerLiter,pgm_read_word(&default_pulsePerLiter));
     e8a:	ee ed       	ldi	r30, 0xDE	; 222
     e8c:	f3 e0       	ldi	r31, 0x03	; 3
     e8e:	85 91       	lpm	r24, Z+
     e90:	94 91       	lpm	r25, Z
     e92:	68 2f       	mov	r22, r24
     e94:	79 2f       	mov	r23, r25
     e96:	80 e2       	ldi	r24, 0x20	; 32
     e98:	91 e0       	ldi	r25, 0x01	; 1
     e9a:	0e 94 56 20 	call	0x40ac	; 0x40ac <__eewr_word_x32a4>
		
		// serialport_printf("#PULSEPERLITER COMPLETE#\r");
		
		for (k=0;k<sizeof(ALPHANUMERIC);k++)
     e9e:	00 e0       	ldi	r16, 0x00	; 0
     ea0:	10 e0       	ldi	r17, 0x00	; 0
#include "TempSensor.h"
#include "EEPROM_data.h"
#include "AlphanumericDisplay.h"


int main(void)
     ea2:	f8 01       	movw	r30, r16
     ea4:	e2 54       	subi	r30, 0x42	; 66
     ea6:	fd 4f       	sbci	r31, 0xFD	; 253
		
		// serialport_printf("#PULSEPERLITER COMPLETE#\r");
		
		for (k=0;k<sizeof(ALPHANUMERIC);k++)
		{
			eeprom_write_byte(((uint8_t *)&eeprom_alphaDisplay)+k,pgm_read_byte(((uint8_t *)&default_alphaDisplay)+k));
     ea8:	64 91       	lpm	r22, Z
     eaa:	c8 01       	movw	r24, r16
     eac:	80 50       	subi	r24, 0x00	; 0
     eae:	90 40       	sbci	r25, 0x00	; 0
     eb0:	0e 94 33 20 	call	0x4066	; 0x4066 <__eewr_byte_x32a4>
		
		eeprom_write_word(&eeprom_pulsePerLiter,pgm_read_word(&default_pulsePerLiter));
		
		// serialport_printf("#PULSEPERLITER COMPLETE#\r");
		
		for (k=0;k<sizeof(ALPHANUMERIC);k++)
     eb4:	0f 5f       	subi	r16, 0xFF	; 255
     eb6:	1f 4f       	sbci	r17, 0xFF	; 255
     eb8:	00 32       	cpi	r16, 0x20	; 32
     eba:	21 e0       	ldi	r18, 0x01	; 1
     ebc:	12 07       	cpc	r17, r18
     ebe:	89 f7       	brne	.-30     	; 0xea2 <main+0x146>
			eeprom_write_byte(((uint8_t *)&eeprom_alphaDisplay)+k,pgm_read_byte(((uint8_t *)&default_alphaDisplay)+k));
		}
		
		// serialport_printf("\r#DISPLAY COMPLETE#\r");
		
		eeprom_write_word(&eeprom_eepromVersionChecker,EEPROMVERSION_BITS);
     ec0:	61 e0       	ldi	r22, 0x01	; 1
     ec2:	71 e0       	ldi	r23, 0x01	; 1
     ec4:	8a e0       	ldi	r24, 0x0A	; 10
     ec6:	92 e0       	ldi	r25, 0x02	; 2
     ec8:	0e 94 56 20 	call	0x40ac	; 0x40ac <__eewr_word_x32a4>
		// serialport_printf("#EEPROMVERSION COMPLETE#\r");
		// serialport_printf("#EEPROM OVERRIDE COMPLETE, START#\r");
	}	
	
	
	pulsePerLiter = eeprom_read_word(&eeprom_pulsePerLiter);	// impulses per liter of the flow meter
     ecc:	80 e2       	ldi	r24, 0x20	; 32
     ece:	91 e0       	ldi	r25, 0x01	; 1
     ed0:	0e 94 1d 20 	call	0x403a	; 0x403a <__eerd_word_x32a4>
     ed4:	c3 58       	subi	r28, 0x83	; 131
     ed6:	dd 4f       	sbci	r29, 0xFD	; 253
     ed8:	88 83       	st	Y, r24
     eda:	99 83       	std	Y+1, r25	; 0x01
     edc:	cd 57       	subi	r28, 0x7D	; 125
     ede:	d2 40       	sbci	r29, 0x02	; 2
	timer_setImpulsePerLiter(pulsePerLiter);							// inform the timer
     ee0:	0e 94 7b 1f 	call	0x3ef6	; 0x3ef6 <timer_setImpulsePerLiter>
	uint8_t switch2_ctr = 0;
	
	uint8_t buzzerEnable = 1;
		
	// read the EEPROM
	eeprom_read_block((void*)channel_data, (const void*)eeprom_channel_data, (NUMBEROFCHANNELS*sizeof(CHANNELDATA)));
     ee4:	48 ed       	ldi	r20, 0xD8	; 216
     ee6:	50 e0       	ldi	r21, 0x00	; 0
     ee8:	62 e3       	ldi	r22, 0x32	; 50
     eea:	71 e0       	ldi	r23, 0x01	; 1
     eec:	ce 01       	movw	r24, r28
     eee:	88 96       	adiw	r24, 0x28	; 40
     ef0:	0e 94 11 20 	call	0x4022	; 0x4022 <__eerd_block_x32a4>
	eeprom_read_block((void*)spare_temperature, (const void*)eeprom_spare_temperature, 8);
     ef4:	48 e0       	ldi	r20, 0x08	; 8
     ef6:	50 e0       	ldi	r21, 0x00	; 0
     ef8:	6a e2       	ldi	r22, 0x2A	; 42
     efa:	71 e0       	ldi	r23, 0x01	; 1
     efc:	ce 01       	movw	r24, r28
     efe:	4e 96       	adiw	r24, 0x1e	; 30
     f00:	0e 94 11 20 	call	0x4022	; 0x4022 <__eerd_block_x32a4>
	eeprom_read_block((void*)&led_data, (const void*)&eeprom_led_data, sizeof(LEDDATA));
     f04:	44 e0       	ldi	r20, 0x04	; 4
     f06:	50 e0       	ldi	r21, 0x00	; 0
     f08:	66 e2       	ldi	r22, 0x26	; 38
     f0a:	71 e0       	ldi	r23, 0x01	; 1
     f0c:	ce 01       	movw	r24, r28
     f0e:	8c 5e       	subi	r24, 0xEC	; 236
     f10:	9e 4f       	sbci	r25, 0xFE	; 254
     f12:	0e 94 11 20 	call	0x4022	; 0x4022 <__eerd_block_x32a4>
	eeprom_read_block((void*)&alert_data, (const void*)&eeprom_alert_data, sizeof(ALERTDATA));
     f16:	44 e0       	ldi	r20, 0x04	; 4
     f18:	50 e0       	ldi	r21, 0x00	; 0
     f1a:	62 e2       	ldi	r22, 0x22	; 34
     f1c:	71 e0       	ldi	r23, 0x01	; 1
     f1e:	ce 01       	movw	r24, r28
     f20:	88 5e       	subi	r24, 0xE8	; 232
     f22:	9e 4f       	sbci	r25, 0xFE	; 254
     f24:	0e 94 11 20 	call	0x4022	; 0x4022 <__eerd_block_x32a4>
	eeprom_read_block((void*)&alphaDisplay, (const void*)&eeprom_alphaDisplay, sizeof(ALPHANUMERIC));
     f28:	40 e2       	ldi	r20, 0x20	; 32
     f2a:	51 e0       	ldi	r21, 0x01	; 1
     f2c:	60 e0       	ldi	r22, 0x00	; 0
     f2e:	70 e0       	ldi	r23, 0x00	; 0
     f30:	ce 01       	movw	r24, r28
     f32:	89 5d       	subi	r24, 0xD9	; 217
     f34:	9e 4f       	sbci	r25, 0xFE	; 254
     f36:	0e 94 11 20 	call	0x4022	; 0x4022 <__eerd_block_x32a4>
	timer_setPwm(BACKLIGHT,alphaDisplay.backlight);
     f3a:	c9 5d       	subi	r28, 0xD9	; 217
     f3c:	de 4f       	sbci	r29, 0xFE	; 254
     f3e:	68 81       	ld	r22, Y
     f40:	c7 52       	subi	r28, 0x27	; 39
     f42:	d1 40       	sbci	r29, 0x01	; 1
     f44:	87 e0       	ldi	r24, 0x07	; 7
     f46:	0e 94 f2 1e 	call	0x3de4	; 0x3de4 <timer_setPwm>
	alpha_setContrast(alphaDisplay.contrast);
     f4a:	c8 5d       	subi	r28, 0xD8	; 216
     f4c:	de 4f       	sbci	r29, 0xFE	; 254
     f4e:	88 81       	ld	r24, Y
     f50:	c8 52       	subi	r28, 0x28	; 40
     f52:	d1 40       	sbci	r29, 0x01	; 1
     f54:	0e 94 35 03 	call	0x66a	; 0x66a <alpha_setContrast>
	screenCountdown = alphaDisplay.screen[0];
     f58:	c7 5d       	subi	r28, 0xD7	; 215
     f5a:	de 4f       	sbci	r29, 0xFE	; 254
     f5c:	38 81       	ld	r19, Y
     f5e:	c9 52       	subi	r28, 0x29	; 41
     f60:	d1 40       	sbci	r29, 0x01	; 1
     f62:	c9 5a       	subi	r28, 0xA9	; 169
     f64:	dd 4f       	sbci	r29, 0xFD	; 253
     f66:	38 83       	st	Y, r19
     f68:	c7 55       	subi	r28, 0x57	; 87
     f6a:	d2 40       	sbci	r29, 0x02	; 2
     f6c:	88 e2       	ldi	r24, 0x28	; 40
     f6e:	90 e0       	ldi	r25, 0x00	; 0
     f70:	8c 0f       	add	r24, r28
     f72:	9d 1f       	adc	r25, r29
     f74:	c2 96       	adiw	r24, 0x32	; 50
     f76:	c3 5a       	subi	r28, 0xA3	; 163
     f78:	dd 4f       	sbci	r29, 0xFD	; 253
     f7a:	88 83       	st	Y, r24
     f7c:	99 83       	std	Y+1, r25	; 0x01
     f7e:	cd 55       	subi	r28, 0x5D	; 93
     f80:	d2 40       	sbci	r29, 0x02	; 2
#include "TempSensor.h"
#include "EEPROM_data.h"
#include "AlphanumericDisplay.h"


int main(void)
     f82:	ce 01       	movw	r24, r28
     f84:	8e 5c       	subi	r24, 0xCE	; 206
     f86:	9e 4f       	sbci	r25, 0xFE	; 254
     f88:	de 01       	movw	r26, r28
     f8a:	ac 5f       	subi	r26, 0xFC	; 252
     f8c:	be 4f       	sbci	r27, 0xFE	; 254
     f8e:	c3 5a       	subi	r28, 0xA3	; 163
     f90:	dd 4f       	sbci	r29, 0xFD	; 253
     f92:	e8 81       	ld	r30, Y
     f94:	f9 81       	ldd	r31, Y+1	; 0x01
     f96:	cd 55       	subi	r28, 0x5D	; 93
     f98:	d2 40       	sbci	r29, 0x02	; 2
	screenCountdown = alphaDisplay.screen[0];
	
	for (i=0;i<NUMBEROFCHANNELS;i++)
	{
		channel_status[i].startupTimer = channel_data[i].startupTime;
		channel_status[i].status = startup;		
     f9a:	41 e0       	ldi	r20, 0x01	; 1
     f9c:	bf 01       	movw	r22, r30
#include "TempSensor.h"
#include "EEPROM_data.h"
#include "AlphanumericDisplay.h"


int main(void)
     f9e:	9d 01       	movw	r18, r26
     fa0:	21 50       	subi	r18, 0x01	; 1
     fa2:	31 09       	sbc	r19, r1
	alpha_setContrast(alphaDisplay.contrast);
	screenCountdown = alphaDisplay.screen[0];
	
	for (i=0;i<NUMBEROFCHANNELS;i++)
	{
		channel_status[i].startupTimer = channel_data[i].startupTime;
     fa4:	fb 01       	movw	r30, r22
     fa6:	50 81       	ld	r21, Z
     fa8:	f9 01       	movw	r30, r18
     faa:	50 83       	st	Z, r21
		channel_status[i].status = startup;		
     fac:	4c 93       	st	X, r20
     fae:	6a 5c       	subi	r22, 0xCA	; 202
     fb0:	7f 4f       	sbci	r23, 0xFF	; 255
     fb2:	15 96       	adiw	r26, 0x05	; 5
	eeprom_read_block((void*)&alphaDisplay, (const void*)&eeprom_alphaDisplay, sizeof(ALPHANUMERIC));
	timer_setPwm(BACKLIGHT,alphaDisplay.backlight);
	alpha_setContrast(alphaDisplay.contrast);
	screenCountdown = alphaDisplay.screen[0];
	
	for (i=0;i<NUMBEROFCHANNELS;i++)
     fb4:	68 17       	cp	r22, r24
     fb6:	79 07       	cpc	r23, r25
     fb8:	91 f7       	brne	.-28     	; 0xf9e <main+0x242>
	
	#ifdef REV2_1
		alpha_displayOverlayMessage("    ConFLiCT                    FW: C0.5 HW: 2.1");
	#endif
	#ifdef REV2_2
		alpha_displayOverlayMessage("    ConFLiCT                    FW: C0.5 HW: 2.2"); 
     fba:	83 e1       	ldi	r24, 0x13	; 19
     fbc:	90 e2       	ldi	r25, 0x20	; 32
     fbe:	0e 94 3a 06 	call	0xc74	; 0xc74 <alpha_displayOverlayMessage>
	uint8_t screenOverlayMessageCountdown = 0;
	
	uint8_t switch1_ctr = 0;
	uint8_t switch2_ctr = 0;
	
	uint8_t buzzerEnable = 1;
     fc2:	f1 e0       	ldi	r31, 0x01	; 1
     fc4:	c4 58       	subi	r28, 0x84	; 132
     fc6:	dd 4f       	sbci	r29, 0xFD	; 253
     fc8:	f8 83       	st	Y, r31
     fca:	cc 57       	subi	r28, 0x7C	; 124
     fcc:	d2 40       	sbci	r29, 0x02	; 2
	uint8_t screenIndex = 0;
	uint8_t screenCountdown;
	uint8_t screenOverlayMessageCountdown = 0;
	
	uint8_t switch1_ctr = 0;
	uint8_t switch2_ctr = 0;
     fce:	c7 5a       	subi	r28, 0xA7	; 167
     fd0:	dd 4f       	sbci	r29, 0xFD	; 253
     fd2:	18 82       	st	Y, r1
     fd4:	c9 55       	subi	r28, 0x59	; 89
     fd6:	d2 40       	sbci	r29, 0x02	; 2
	ALPHANUMERIC alphaDisplay;
	uint8_t screenIndex = 0;
	uint8_t screenCountdown;
	uint8_t screenOverlayMessageCountdown = 0;
	
	uint8_t switch1_ctr = 0;
     fd8:	c7 59       	subi	r28, 0x97	; 151
     fda:	dd 4f       	sbci	r29, 0xFD	; 253
     fdc:	18 82       	st	Y, r1
     fde:	c9 56       	subi	r28, 0x69	; 105
     fe0:	d2 40       	sbci	r29, 0x02	; 2
		alpha_displayOverlayMessage("    ConFLiCT                    FW: C0.5 HW: 2.1");
	#endif
	#ifdef REV2_2
		alpha_displayOverlayMessage("    ConFLiCT                    FW: C0.5 HW: 2.2"); 
	#endif	
	screenOverlayMessageCountdown = 10; 
     fe2:	2a e0       	ldi	r18, 0x0A	; 10
     fe4:	c4 5a       	subi	r28, 0xA4	; 164
     fe6:	dd 4f       	sbci	r29, 0xFD	; 253
     fe8:	28 83       	st	Y, r18
     fea:	cc 55       	subi	r28, 0x5C	; 92
     fec:	d2 40       	sbci	r29, 0x02	; 2
	
	pulsePerLiter = eeprom_read_word(&eeprom_pulsePerLiter);	// impulses per liter of the flow meter
	timer_setImpulsePerLiter(pulsePerLiter);							// inform the timer
	
	ALPHANUMERIC alphaDisplay;
	uint8_t screenIndex = 0;
     fee:	c8 5a       	subi	r28, 0xA8	; 168
     ff0:	dd 4f       	sbci	r29, 0xFD	; 253
     ff2:	18 82       	st	Y, r1
     ff4:	c8 55       	subi	r28, 0x58	; 88
     ff6:	d2 40       	sbci	r29, 0x02	; 2
		
	CHANNELDATA channel_data[NUMBEROFCHANNELS];		// the permanent data of the 4 channels (fan 1-3 and analog)
	CHANNELSTATUS channel_status[NUMBEROFCHANNELS];	// the actual status of the channels
	
	LEDDATA led_data;					// data for the led channels
	uint16_t ledCtr = 0;				// a rotary counter value for led sweep calculation, incremented every 100 ms
     ff8:	cb 5a       	subi	r28, 0xAB	; 171
     ffa:	dd 4f       	sbci	r29, 0xFD	; 253
     ffc:	18 82       	st	Y, r1
     ffe:	19 82       	std	Y+1, r1	; 0x01
    1000:	c5 55       	subi	r28, 0x55	; 85
    1002:	d2 40       	sbci	r29, 0x02	; 2
	
	CARRIAGE aDataSet;					// a data set used for communication
	
	uint8_t temperature[24];			// the temperatures, actual only 0-7 are in use
	uint8_t spare_temperature[8];		// the spare values for the aida values (actual not in use)
	uint8_t spare_temperatureTimer = 5; // timeout timer for AIDA temperature (use spare values until values are older then 4 seconds)
    1004:	35 e0       	ldi	r19, 0x05	; 5
    1006:	cc 5a       	subi	r28, 0xAC	; 172
    1008:	dd 4f       	sbci	r29, 0xFD	; 253
    100a:	38 83       	st	Y, r19
    100c:	c4 55       	subi	r28, 0x54	; 84
    100e:	d2 40       	sbci	r29, 0x02	; 2
	sei();
	
	uint8_t i,j;						// multi used index variables
	uint16_t k;
	
	uint8_t messageCtr = 0;				// message counter for automatic messages 
    1010:	cd 5a       	subi	r28, 0xAD	; 173
    1012:	dd 4f       	sbci	r29, 0xFD	; 253
    1014:	18 82       	st	Y, r1
    1016:	c3 55       	subi	r28, 0x53	; 83
    1018:	d2 40       	sbci	r29, 0x02	; 2
    101a:	80 e0       	ldi	r24, 0x00	; 0
    101c:	91 e0       	ldi	r25, 0x01	; 1
    101e:	8c 0f       	add	r24, r28
    1020:	9d 1f       	adc	r25, r29
    1022:	03 96       	adiw	r24, 0x03	; 3
    1024:	c1 5a       	subi	r28, 0xA1	; 161
    1026:	dd 4f       	sbci	r29, 0xFD	; 253
    1028:	88 83       	st	Y, r24
    102a:	99 83       	std	Y+1, r25	; 0x01
    102c:	cf 55       	subi	r28, 0x5F	; 95
    102e:	d2 40       	sbci	r29, 0x02	; 2
    1030:	a0 e0       	ldi	r26, 0x00	; 0
    1032:	b1 e0       	ldi	r27, 0x01	; 1
    1034:	ac 0f       	add	r26, r28
    1036:	bd 1f       	adc	r27, r29
    1038:	12 96       	adiw	r26, 0x02	; 2
    103a:	cf 59       	subi	r28, 0x9F	; 159
    103c:	dd 4f       	sbci	r29, 0xFD	; 253
    103e:	a8 83       	st	Y, r26
    1040:	b9 83       	std	Y+1, r27	; 0x01
    1042:	c1 56       	subi	r28, 0x61	; 97
    1044:	d2 40       	sbci	r29, 0x02	; 2
    1046:	e8 e2       	ldi	r30, 0x28	; 40
    1048:	f0 e0       	ldi	r31, 0x00	; 0
    104a:	ec 0f       	add	r30, r28
    104c:	fd 1f       	adc	r31, r29
    104e:	f5 96       	adiw	r30, 0x35	; 53
    1050:	cd 59       	subi	r28, 0x9D	; 157
    1052:	dd 4f       	sbci	r29, 0xFD	; 253
    1054:	e8 83       	st	Y, r30
    1056:	f9 83       	std	Y+1, r31	; 0x01
    1058:	c3 56       	subi	r28, 0x63	; 99
    105a:	d2 40       	sbci	r29, 0x02	; 2
    105c:	28 e2       	ldi	r18, 0x28	; 40
    105e:	30 e0       	ldi	r19, 0x00	; 0
    1060:	2c 0f       	add	r18, r28
    1062:	3d 1f       	adc	r19, r29
    1064:	20 5d       	subi	r18, 0xD0	; 208
    1066:	3f 4f       	sbci	r19, 0xFF	; 255
    1068:	cb 59       	subi	r28, 0x9B	; 155
    106a:	dd 4f       	sbci	r29, 0xFD	; 253
    106c:	28 83       	st	Y, r18
    106e:	39 83       	std	Y+1, r19	; 0x01
    1070:	c5 56       	subi	r28, 0x65	; 101
    1072:	d2 40       	sbci	r29, 0x02	; 2
    1074:	88 e2       	ldi	r24, 0x28	; 40
    1076:	90 e0       	ldi	r25, 0x00	; 0
    1078:	8c 0f       	add	r24, r28
    107a:	9d 1f       	adc	r25, r29
    107c:	c4 96       	adiw	r24, 0x34	; 52
    107e:	c9 59       	subi	r28, 0x99	; 153
    1080:	dd 4f       	sbci	r29, 0xFD	; 253
    1082:	88 83       	st	Y, r24
    1084:	99 83       	std	Y+1, r25	; 0x01
    1086:	c7 56       	subi	r28, 0x67	; 103
    1088:	d2 40       	sbci	r29, 0x02	; 2
						}						
					}
					if (temperature[j] > channel_data[i].maxTemp[j])	// a temperature over maximum! o.O
					{
						// over temperature
						if (alert_data.overtempEnable)
    108a:	ce 58       	subi	r28, 0x8E	; 142
    108c:	dd 4f       	sbci	r29, 0xFD	; 253
    108e:	88 83       	st	Y, r24
    1090:	c2 57       	subi	r28, 0x72	; 114
    1092:	d2 40       	sbci	r29, 0x02	; 2
    1094:	cd 58       	subi	r28, 0x8D	; 141
    1096:	dd 4f       	sbci	r29, 0xFD	; 253
    1098:	98 83       	st	Y, r25
    109a:	c3 57       	subi	r28, 0x73	; 115
    109c:	d2 40       	sbci	r29, 0x02	; 2
    109e:	cc 58       	subi	r28, 0x8C	; 140
    10a0:	dd 4f       	sbci	r29, 0xFD	; 253
    10a2:	28 83       	st	Y, r18
    10a4:	c4 57       	subi	r28, 0x74	; 116
    10a6:	d2 40       	sbci	r29, 0x02	; 2
    10a8:	cb 58       	subi	r28, 0x8B	; 139
    10aa:	dd 4f       	sbci	r29, 0xFD	; 253
    10ac:	38 83       	st	Y, r19
    10ae:	c5 57       	subi	r28, 0x75	; 117
    10b0:	d2 40       	sbci	r29, 0x02	; 2
    10b2:	ca 58       	subi	r28, 0x8A	; 138
    10b4:	dd 4f       	sbci	r29, 0xFD	; 253
    10b6:	e8 83       	st	Y, r30
    10b8:	c6 57       	subi	r28, 0x76	; 118
    10ba:	d2 40       	sbci	r29, 0x02	; 2
    10bc:	c9 58       	subi	r28, 0x89	; 137
    10be:	dd 4f       	sbci	r29, 0xFD	; 253
    10c0:	f8 83       	st	Y, r31
    10c2:	c7 57       	subi	r28, 0x77	; 119
    10c4:	d2 40       	sbci	r29, 0x02	; 2
    10c6:	c8 58       	subi	r28, 0x88	; 136
    10c8:	dd 4f       	sbci	r29, 0xFD	; 253
    10ca:	a8 83       	st	Y, r26
    10cc:	c8 57       	subi	r28, 0x78	; 120
    10ce:	d2 40       	sbci	r29, 0x02	; 2
    10d0:	c7 58       	subi	r28, 0x87	; 135
    10d2:	dd 4f       	sbci	r29, 0xFD	; 253
    10d4:	b8 83       	st	Y, r27
    10d6:	c9 57       	subi	r28, 0x79	; 121
    10d8:	d2 40       	sbci	r29, 0x02	; 2
    10da:	c1 5a       	subi	r28, 0xA1	; 161
    10dc:	dd 4f       	sbci	r29, 0xFD	; 253
    10de:	98 81       	ld	r25, Y
    10e0:	cf 55       	subi	r28, 0x5F	; 95
    10e2:	d2 40       	sbci	r29, 0x02	; 2
    10e4:	c6 58       	subi	r28, 0x86	; 134
    10e6:	dd 4f       	sbci	r29, 0xFD	; 253
    10e8:	98 83       	st	Y, r25
    10ea:	ca 57       	subi	r28, 0x7A	; 122
    10ec:	d2 40       	sbci	r29, 0x02	; 2
    10ee:	c0 5a       	subi	r28, 0xA0	; 160
    10f0:	dd 4f       	sbci	r29, 0xFD	; 253
    10f2:	a8 81       	ld	r26, Y
    10f4:	c0 56       	subi	r28, 0x60	; 96
    10f6:	d2 40       	sbci	r29, 0x02	; 2
    10f8:	c5 58       	subi	r28, 0x85	; 133
    10fa:	dd 4f       	sbci	r29, 0xFD	; 253
    10fc:	a8 83       	st	Y, r26
    10fe:	cb 57       	subi	r28, 0x7B	; 123
    1100:	d2 40       	sbci	r29, 0x02	; 2
			if (screenOverlayMessageCountdown == 0)
			{
				// if no alert is active, show normal display content
				if (alert_status.fanblock == 0 && alert_status.lowWaterFlow == 0 && alert_status.overtemp == 0)
				{
					alpha_updateScreen(screenIndex,alphaDisplay.content,temperature,time,pcStatus,&literPerHour,channel_status);
    1102:	e7 e2       	ldi	r30, 0x27	; 39
    1104:	f1 e0       	ldi	r31, 0x01	; 1
    1106:	ec 0f       	add	r30, r28
    1108:	fd 1f       	adc	r31, r29
    110a:	b1 96       	adiw	r30, 0x21	; 33
    110c:	c1 58       	subi	r28, 0x81	; 129
    110e:	dd 4f       	sbci	r29, 0xFD	; 253
    1110:	e8 83       	st	Y, r30
    1112:	f9 83       	std	Y+1, r31	; 0x01
    1114:	cf 57       	subi	r28, 0x7F	; 127
    1116:	d2 40       	sbci	r29, 0x02	; 2
    1118:	24 e1       	ldi	r18, 0x14	; 20
    111a:	31 e0       	ldi	r19, 0x01	; 1
    111c:	2c 0f       	add	r18, r28
    111e:	3d 1f       	adc	r19, r29
    1120:	2f 5f       	subi	r18, 0xFF	; 255
    1122:	3f 4f       	sbci	r19, 0xFF	; 255
    1124:	cf 57       	subi	r28, 0x7F	; 127
    1126:	dd 4f       	sbci	r29, 0xFD	; 253
    1128:	28 83       	st	Y, r18
    112a:	39 83       	std	Y+1, r19	; 0x01
    112c:	c1 58       	subi	r28, 0x81	; 129
    112e:	d2 40       	sbci	r29, 0x02	; 2
				
	while(1)						// main loop
    {
        		
		// use spare temperatures if aida temperatures are to old
		if (spare_temperatureTimer > 4)
    1130:	cc 5a       	subi	r28, 0xAC	; 172
    1132:	dd 4f       	sbci	r29, 0xFD	; 253
    1134:	38 81       	ld	r19, Y
    1136:	c4 55       	subi	r28, 0x54	; 84
    1138:	d2 40       	sbci	r29, 0x02	; 2
    113a:	35 30       	cpi	r19, 0x05	; 5
    113c:	10 f4       	brcc	.+4      	; 0x1142 <main+0x3e6>
    113e:	0c 94 a1 15 	jmp	0x2b42	; 0x2b42 <main+0x1de6>
    1142:	fe 01       	movw	r30, r28
    1144:	7e 96       	adiw	r30, 0x1e	; 30
    1146:	de 01       	movw	r26, r28
    1148:	56 96       	adiw	r26, 0x16	; 22
#include "TempSensor.h"
#include "EEPROM_data.h"
#include "AlphanumericDisplay.h"


int main(void)
    114a:	ce 01       	movw	r24, r28
    114c:	86 96       	adiw	r24, 0x26	; 38
		// use spare temperatures if aida temperatures are to old
		if (spare_temperatureTimer > 4)
		{
			for (i=0;i<8;i++)
			{
				temperature[i+16] = spare_temperature[i];
    114e:	21 91       	ld	r18, Z+
    1150:	2d 93       	st	X+, r18
    {
        		
		// use spare temperatures if aida temperatures are to old
		if (spare_temperatureTimer > 4)
		{
			for (i=0;i<8;i++)
    1152:	e8 17       	cp	r30, r24
    1154:	f9 07       	cpc	r31, r25
    1156:	d9 f7       	brne	.-10     	; 0x114e <main+0x3f2>
    1158:	0c 94 a1 15 	jmp	0x2b42	; 0x2b42 <main+0x1de6>
#include "TempSensor.h"
#include "EEPROM_data.h"
#include "AlphanumericDisplay.h"


int main(void)
    115c:	cf 5a       	subi	r28, 0xAF	; 175
    115e:	dd 4f       	sbci	r29, 0xFD	; 253
    1160:	c8 82       	st	Y, r12
    1162:	d9 82       	std	Y+1, r13	; 0x01
    1164:	c1 55       	subi	r28, 0x51	; 81
    1166:	d2 40       	sbci	r29, 0x02	; 2
    1168:	f6 01       	movw	r30, r12
    116a:	31 97       	sbiw	r30, 0x01	; 1
		
		// calculate the channel power
		for (i=0;i<NUMBEROFCHANNELS;i++)
		{	
					
			if (channel_data[i].automaticMode)		// automatic mode
    116c:	80 81       	ld	r24, Z
    116e:	88 23       	and	r24, r24
    1170:	09 f4       	brne	.+2      	; 0x1174 <main+0x418>
    1172:	bc c0       	rjmp	.+376    	; 0x12ec <main+0x590>
    1174:	fe 01       	movw	r30, r28
    1176:	36 96       	adiw	r30, 0x06	; 6
#include "TempSensor.h"
#include "EEPROM_data.h"
#include "AlphanumericDisplay.h"


int main(void)
    1178:	46 e3       	ldi	r20, 0x36	; 54
    117a:	4a 9d       	mul	r20, r10
    117c:	90 01       	movw	r18, r0
    117e:	4b 9d       	mul	r20, r11
    1180:	30 0d       	add	r19, r0
    1182:	11 24       	eor	r1, r1
    1184:	08 e2       	ldi	r16, 0x28	; 40
    1186:	10 e0       	ldi	r17, 0x00	; 0
    1188:	0c 0f       	add	r16, r28
    118a:	1d 1f       	adc	r17, r29
    118c:	02 0f       	add	r16, r18
    118e:	13 1f       	adc	r17, r19
    1190:	28 5e       	subi	r18, 0xE8	; 232
    1192:	3f 4f       	sbci	r19, 0xFF	; 255
    1194:	88 e2       	ldi	r24, 0x28	; 40
    1196:	90 e0       	ldi	r25, 0x00	; 0
    1198:	8c 0f       	add	r24, r28
    119a:	9d 1f       	adc	r25, r29
    119c:	28 0f       	add	r18, r24
    119e:	39 1f       	adc	r19, r25
    11a0:	31 2c       	mov	r3, r1
			{
				uint8_t cooling = 0;			// temporary cooling value
				uint8_t d1, d2;					// temporary variable for calculation
				for (j=0;j<24;j++)
				{
					if ((temperature[j] >= channel_data[i].minTemp[j]) && (temperature[j] <= channel_data[i].maxTemp[j])) // temperature is between min and max
    11a2:	41 90       	ld	r4, Z+
    11a4:	d8 01       	movw	r26, r16
    11a6:	4d 91       	ld	r20, X+
    11a8:	8d 01       	movw	r16, r26
    11aa:	44 16       	cp	r4, r20
    11ac:	a0 f0       	brcs	.+40     	; 0x11d6 <main+0x47a>
    11ae:	d9 01       	movw	r26, r18
    11b0:	6c 91       	ld	r22, X
    11b2:	64 15       	cp	r22, r4
    11b4:	80 f0       	brcs	.+32     	; 0x11d6 <main+0x47a>
					{
						d1 = 100 / (channel_data[i].maxTemp[j] - channel_data[i].minTemp[j]);	// calculate cooling value
    11b6:	50 e0       	ldi	r21, 0x00	; 0
    11b8:	70 e0       	ldi	r23, 0x00	; 0
    11ba:	64 1b       	sub	r22, r20
    11bc:	75 0b       	sbc	r23, r21
    11be:	84 e6       	ldi	r24, 0x64	; 100
    11c0:	90 e0       	ldi	r25, 0x00	; 0
    11c2:	0e 94 94 1f 	call	0x3f28	; 0x3f28 <__divmodhi4>
						d2 = (temperature[j] - channel_data[i].minTemp[j]) * d1;
    11c6:	84 2d       	mov	r24, r4
    11c8:	84 1b       	sub	r24, r20
    11ca:	86 9f       	mul	r24, r22
    11cc:	60 2d       	mov	r22, r0
    11ce:	11 24       	eor	r1, r1
    11d0:	36 16       	cp	r3, r22
    11d2:	08 f4       	brcc	.+2      	; 0x11d6 <main+0x47a>
    11d4:	36 2e       	mov	r3, r22
						if (d2 > cooling)	// save the highest cooling value	
						{
							cooling = d2;
						}						
					}
					if (temperature[j] > channel_data[i].maxTemp[j])	// a temperature over maximum! o.O
    11d6:	d9 01       	movw	r26, r18
    11d8:	8d 91       	ld	r24, X+
    11da:	9d 01       	movw	r18, r26
    11dc:	84 15       	cp	r24, r4
    11de:	30 f4       	brcc	.+12     	; 0x11ec <main+0x490>
					{
						// over temperature
						if (alert_data.overtempEnable)
    11e0:	61 10       	cpse	r6, r1
    11e2:	02 c0       	rjmp	.+4      	; 0x11e8 <main+0x48c>
						{
							alert_status.overtemp = 1;
						}					
						cooling = 100;
    11e4:	37 2c       	mov	r3, r7
    11e6:	02 c0       	rjmp	.+4      	; 0x11ec <main+0x490>
					if (temperature[j] > channel_data[i].maxTemp[j])	// a temperature over maximum! o.O
					{
						// over temperature
						if (alert_data.overtempEnable)
						{
							alert_status.overtemp = 1;
    11e8:	25 2c       	mov	r2, r5
						}					
						cooling = 100;
    11ea:	37 2c       	mov	r3, r7
					
			if (channel_data[i].automaticMode)		// automatic mode
			{
				uint8_t cooling = 0;			// temporary cooling value
				uint8_t d1, d2;					// temporary variable for calculation
				for (j=0;j<24;j++)
    11ec:	ee 15       	cp	r30, r14
    11ee:	ff 05       	cpc	r31, r15
    11f0:	c1 f6       	brne	.-80     	; 0x11a2 <main+0x446>
#include "TempSensor.h"
#include "EEPROM_data.h"
#include "AlphanumericDisplay.h"


int main(void)
    11f2:	f4 01       	movw	r30, r8
						}					
						cooling = 100;
					}				
				}
				
				switch (channel_status[i].status)						// check the status
    11f4:	80 81       	ld	r24, Z
    11f6:	81 30       	cpi	r24, 0x01	; 1
    11f8:	09 f4       	brne	.+2      	; 0x11fc <main+0x4a0>
    11fa:	3f c0       	rjmp	.+126    	; 0x127a <main+0x51e>
    11fc:	20 f0       	brcs	.+8      	; 0x1206 <main+0x4aa>
    11fe:	82 30       	cpi	r24, 0x02	; 2
    1200:	09 f0       	breq	.+2      	; 0x1204 <main+0x4a8>
    1202:	b6 c0       	rjmp	.+364    	; 0x1370 <main+0x614>
    1204:	43 c0       	rjmp	.+134    	; 0x128c <main+0x530>
				{
					case off:		
						channel_status[i].power = 0;					// turn it off
    1206:	c9 5b       	subi	r28, 0xB9	; 185
    1208:	dd 4f       	sbci	r29, 0xFD	; 253
    120a:	a8 81       	ld	r26, Y
    120c:	b9 81       	ldd	r27, Y+1	; 0x01
    120e:	c7 54       	subi	r28, 0x47	; 71
    1210:	d2 40       	sbci	r29, 0x02	; 2
    1212:	1c 92       	st	X, r1
						if (channel_data[i].stopEnable)					// off allowed
    1214:	cf 5a       	subi	r28, 0xAF	; 175
    1216:	dd 4f       	sbci	r29, 0xFD	; 253
    1218:	a8 81       	ld	r26, Y
    121a:	b9 81       	ldd	r27, Y+1	; 0x01
    121c:	c1 55       	subi	r28, 0x51	; 81
    121e:	d2 40       	sbci	r29, 0x02	; 2
    1220:	8c 91       	ld	r24, X
    1222:	88 23       	and	r24, r24
    1224:	d1 f0       	breq	.+52     	; 0x125a <main+0x4fe>
						{
							if (cooling > channel_data[i].threshold)	// if cooling is higher then threshold
    1226:	c3 5b       	subi	r28, 0xB3	; 179
    1228:	dd 4f       	sbci	r29, 0xFD	; 253
    122a:	a8 81       	ld	r26, Y
    122c:	b9 81       	ldd	r27, Y+1	; 0x01
    122e:	cd 54       	subi	r28, 0x4D	; 77
    1230:	d2 40       	sbci	r29, 0x02	; 2
    1232:	8c 91       	ld	r24, X
    1234:	83 15       	cp	r24, r3
    1236:	08 f0       	brcs	.+2      	; 0x123a <main+0x4de>
    1238:	9b c0       	rjmp	.+310    	; 0x1370 <main+0x614>
							{
								channel_status[i].status = startup;		// start the channel and reset the startup timer
    123a:	50 82       	st	Z, r5
								channel_status[i].startupTimer = channel_data[i].startupTime;
    123c:	c1 5b       	subi	r28, 0xB1	; 177
    123e:	dd 4f       	sbci	r29, 0xFD	; 253
    1240:	e8 81       	ld	r30, Y
    1242:	f9 81       	ldd	r31, Y+1	; 0x01
    1244:	cf 54       	subi	r28, 0x4F	; 79
    1246:	d2 40       	sbci	r29, 0x02	; 2
    1248:	80 81       	ld	r24, Z
    124a:	c5 5b       	subi	r28, 0xB5	; 181
    124c:	dd 4f       	sbci	r29, 0xFD	; 253
    124e:	e8 81       	ld	r30, Y
    1250:	f9 81       	ldd	r31, Y+1	; 0x01
    1252:	cb 54       	subi	r28, 0x4B	; 75
    1254:	d2 40       	sbci	r29, 0x02	; 2
    1256:	80 83       	st	Z, r24
    1258:	8b c0       	rjmp	.+278    	; 0x1370 <main+0x614>
							}							
						}
						else                                            // off is not allowed (anymore)
						{
							channel_status[i].status = startup;			// start the channel and reset the startup timer
    125a:	50 82       	st	Z, r5
							channel_status[i].startupTimer = channel_data[i].startupTime;
    125c:	c1 5b       	subi	r28, 0xB1	; 177
    125e:	dd 4f       	sbci	r29, 0xFD	; 253
    1260:	e8 81       	ld	r30, Y
    1262:	f9 81       	ldd	r31, Y+1	; 0x01
    1264:	cf 54       	subi	r28, 0x4F	; 79
    1266:	d2 40       	sbci	r29, 0x02	; 2
    1268:	80 81       	ld	r24, Z
    126a:	c5 5b       	subi	r28, 0xB5	; 181
    126c:	dd 4f       	sbci	r29, 0xFD	; 253
    126e:	e8 81       	ld	r30, Y
    1270:	f9 81       	ldd	r31, Y+1	; 0x01
    1272:	cb 54       	subi	r28, 0x4B	; 75
    1274:	d2 40       	sbci	r29, 0x02	; 2
    1276:	80 83       	st	Z, r24
    1278:	7b c0       	rjmp	.+246    	; 0x1370 <main+0x614>
						}
						break;
					
					case startup:										
						channel_status[i].power = 100;					// 100 % for startup
    127a:	24 e6       	ldi	r18, 0x64	; 100
    127c:	c9 5b       	subi	r28, 0xB9	; 185
    127e:	dd 4f       	sbci	r29, 0xFD	; 253
    1280:	e8 81       	ld	r30, Y
    1282:	f9 81       	ldd	r31, Y+1	; 0x01
    1284:	c7 54       	subi	r28, 0x47	; 71
    1286:	d2 40       	sbci	r29, 0x02	; 2
    1288:	20 83       	st	Z, r18
						break;
    128a:	72 c0       	rjmp	.+228    	; 0x1370 <main+0x614>
					
					case on:
						if ((cooling == 0) && (channel_data[i].stopEnable == 1))	// if stop is enabled and no cooling needed
    128c:	31 10       	cpse	r3, r1
    128e:	0a c0       	rjmp	.+20     	; 0x12a4 <main+0x548>
    1290:	cf 5a       	subi	r28, 0xAF	; 175
    1292:	dd 4f       	sbci	r29, 0xFD	; 253
    1294:	a8 81       	ld	r26, Y
    1296:	b9 81       	ldd	r27, Y+1	; 0x01
    1298:	c1 55       	subi	r28, 0x51	; 81
    129a:	d2 40       	sbci	r29, 0x02	; 2
    129c:	8c 91       	ld	r24, X
    129e:	81 30       	cpi	r24, 0x01	; 1
    12a0:	09 f4       	brne	.+2      	; 0x12a4 <main+0x548>
						{
							channel_status[i].status = off;				// turn it off
    12a2:	10 82       	st	Z, r1
#include "TempSensor.h"
#include "EEPROM_data.h"
#include "AlphanumericDisplay.h"


int main(void)
    12a4:	cf 5a       	subi	r28, 0xAF	; 175
    12a6:	dd 4f       	sbci	r29, 0xFD	; 253
    12a8:	e8 81       	ld	r30, Y
    12aa:	f9 81       	ldd	r31, Y+1	; 0x01
    12ac:	c1 55       	subi	r28, 0x51	; 81
    12ae:	d2 40       	sbci	r29, 0x02	; 2
    12b0:	33 97       	sbiw	r30, 0x03	; 3
						if ((cooling == 0) && (channel_data[i].stopEnable == 1))	// if stop is enabled and no cooling needed
						{
							channel_status[i].status = off;				// turn it off
						}
						// calculate the power value out off the minimum value and the cooling value
						channel_status[i].power = (uint8_t)((((uint16_t)(100-channel_data[i].minimumPower))*cooling)/100 + channel_data[i].minimumPower);
    12b2:	40 81       	ld	r20, Z
    12b4:	84 e6       	ldi	r24, 0x64	; 100
    12b6:	90 e0       	ldi	r25, 0x00	; 0
    12b8:	84 1b       	sub	r24, r20
    12ba:	91 09       	sbc	r25, r1
    12bc:	38 9e       	mul	r3, r24
    12be:	90 01       	movw	r18, r0
    12c0:	39 9e       	mul	r3, r25
    12c2:	30 0d       	add	r19, r0
    12c4:	11 24       	eor	r1, r1
    12c6:	36 95       	lsr	r19
    12c8:	27 95       	ror	r18
    12ca:	36 95       	lsr	r19
    12cc:	27 95       	ror	r18
    12ce:	ab e7       	ldi	r26, 0x7B	; 123
    12d0:	b4 e1       	ldi	r27, 0x14	; 20
    12d2:	0e 94 d0 1f 	call	0x3fa0	; 0x3fa0 <__umulhisi3>
    12d6:	96 95       	lsr	r25
    12d8:	87 95       	ror	r24
    12da:	48 0f       	add	r20, r24
    12dc:	c9 5b       	subi	r28, 0xB9	; 185
    12de:	dd 4f       	sbci	r29, 0xFD	; 253
    12e0:	e8 81       	ld	r30, Y
    12e2:	f9 81       	ldd	r31, Y+1	; 0x01
    12e4:	c7 54       	subi	r28, 0x47	; 71
    12e6:	d2 40       	sbci	r29, 0x02	; 2
    12e8:	40 83       	st	Z, r20
						break;
    12ea:	42 c0       	rjmp	.+132    	; 0x1370 <main+0x614>
#include "TempSensor.h"
#include "EEPROM_data.h"
#include "AlphanumericDisplay.h"


int main(void)
    12ec:	f4 01       	movw	r30, r8
				}				
			}
			 
			else								// manual mode
			{
				switch (channel_status[i].status)					// check the status
    12ee:	80 81       	ld	r24, Z
    12f0:	81 30       	cpi	r24, 0x01	; 1
    12f2:	21 f1       	breq	.+72     	; 0x133c <main+0x5e0>
    12f4:	18 f0       	brcs	.+6      	; 0x12fc <main+0x5a0>
    12f6:	82 30       	cpi	r24, 0x02	; 2
    12f8:	d9 f5       	brne	.+118    	; 0x1370 <main+0x614>
    12fa:	29 c0       	rjmp	.+82     	; 0x134e <main+0x5f2>
				{
					case off:						
						channel_status[i].power = 0;				// turn it off
    12fc:	c9 5b       	subi	r28, 0xB9	; 185
    12fe:	dd 4f       	sbci	r29, 0xFD	; 253
    1300:	a8 81       	ld	r26, Y
    1302:	b9 81       	ldd	r27, Y+1	; 0x01
    1304:	c7 54       	subi	r28, 0x47	; 71
    1306:	d2 40       	sbci	r29, 0x02	; 2
    1308:	1c 92       	st	X, r1
						if (channel_data[i].manualPower > 0)		
    130a:	c7 5b       	subi	r28, 0xB7	; 183
    130c:	dd 4f       	sbci	r29, 0xFD	; 253
    130e:	a8 81       	ld	r26, Y
    1310:	b9 81       	ldd	r27, Y+1	; 0x01
    1312:	c9 54       	subi	r28, 0x49	; 73
    1314:	d2 40       	sbci	r29, 0x02	; 2
    1316:	8c 91       	ld	r24, X
    1318:	88 23       	and	r24, r24
    131a:	51 f1       	breq	.+84     	; 0x1370 <main+0x614>
						{
							channel_status[i].status = startup;		// start the channel and reset the startup timer
    131c:	50 82       	st	Z, r5
							channel_status[i].startupTimer = channel_data[i].startupTime;
    131e:	c1 5b       	subi	r28, 0xB1	; 177
    1320:	dd 4f       	sbci	r29, 0xFD	; 253
    1322:	e8 81       	ld	r30, Y
    1324:	f9 81       	ldd	r31, Y+1	; 0x01
    1326:	cf 54       	subi	r28, 0x4F	; 79
    1328:	d2 40       	sbci	r29, 0x02	; 2
    132a:	80 81       	ld	r24, Z
    132c:	c5 5b       	subi	r28, 0xB5	; 181
    132e:	dd 4f       	sbci	r29, 0xFD	; 253
    1330:	e8 81       	ld	r30, Y
    1332:	f9 81       	ldd	r31, Y+1	; 0x01
    1334:	cb 54       	subi	r28, 0x4B	; 75
    1336:	d2 40       	sbci	r29, 0x02	; 2
    1338:	80 83       	st	Z, r24
    133a:	1a c0       	rjmp	.+52     	; 0x1370 <main+0x614>
						}					
						break;
					
					case startup:
						channel_status[i].power = 100;				// 100 % for startup
    133c:	24 e6       	ldi	r18, 0x64	; 100
    133e:	c9 5b       	subi	r28, 0xB9	; 185
    1340:	dd 4f       	sbci	r29, 0xFD	; 253
    1342:	e8 81       	ld	r30, Y
    1344:	f9 81       	ldd	r31, Y+1	; 0x01
    1346:	c7 54       	subi	r28, 0x47	; 71
    1348:	d2 40       	sbci	r29, 0x02	; 2
    134a:	20 83       	st	Z, r18
						break;
    134c:	11 c0       	rjmp	.+34     	; 0x1370 <main+0x614>
						
					case on:
						channel_status[i].power = channel_data[i].manualPower;
    134e:	c7 5b       	subi	r28, 0xB7	; 183
    1350:	dd 4f       	sbci	r29, 0xFD	; 253
    1352:	a8 81       	ld	r26, Y
    1354:	b9 81       	ldd	r27, Y+1	; 0x01
    1356:	c9 54       	subi	r28, 0x49	; 73
    1358:	d2 40       	sbci	r29, 0x02	; 2
    135a:	8c 91       	ld	r24, X
    135c:	c9 5b       	subi	r28, 0xB9	; 185
    135e:	dd 4f       	sbci	r29, 0xFD	; 253
    1360:	a8 81       	ld	r26, Y
    1362:	b9 81       	ldd	r27, Y+1	; 0x01
    1364:	c7 54       	subi	r28, 0x47	; 71
    1366:	d2 40       	sbci	r29, 0x02	; 2
    1368:	8c 93       	st	X, r24
						if (channel_data[i].manualPower == 0)		// if no power, go to off
    136a:	81 11       	cpse	r24, r1
    136c:	01 c0       	rjmp	.+2      	; 0x1370 <main+0x614>
						{
							channel_status[i].status = off;
    136e:	10 82       	st	Z, r1
    1370:	bf ef       	ldi	r27, 0xFF	; 255
    1372:	ab 1a       	sub	r10, r27
    1374:	bb 0a       	sbc	r11, r27
    1376:	e5 e0       	ldi	r30, 0x05	; 5
    1378:	8e 0e       	add	r8, r30
    137a:	91 1c       	adc	r9, r1
    137c:	c1 5b       	subi	r28, 0xB1	; 177
    137e:	dd 4f       	sbci	r29, 0xFD	; 253
    1380:	e8 81       	ld	r30, Y
    1382:	f9 81       	ldd	r31, Y+1	; 0x01
    1384:	cf 54       	subi	r28, 0x4F	; 79
    1386:	d2 40       	sbci	r29, 0x02	; 2
    1388:	f6 96       	adiw	r30, 0x36	; 54
    138a:	c1 5b       	subi	r28, 0xB1	; 177
    138c:	dd 4f       	sbci	r29, 0xFD	; 253
    138e:	e8 83       	st	Y, r30
    1390:	f9 83       	std	Y+1, r31	; 0x01
    1392:	cf 54       	subi	r28, 0x4F	; 79
    1394:	d2 40       	sbci	r29, 0x02	; 2
    1396:	c5 5b       	subi	r28, 0xB5	; 181
    1398:	dd 4f       	sbci	r29, 0xFD	; 253
    139a:	e8 81       	ld	r30, Y
    139c:	f9 81       	ldd	r31, Y+1	; 0x01
    139e:	cb 54       	subi	r28, 0x4B	; 75
    13a0:	d2 40       	sbci	r29, 0x02	; 2
    13a2:	35 96       	adiw	r30, 0x05	; 5
    13a4:	c5 5b       	subi	r28, 0xB5	; 181
    13a6:	dd 4f       	sbci	r29, 0xFD	; 253
    13a8:	e8 83       	st	Y, r30
    13aa:	f9 83       	std	Y+1, r31	; 0x01
    13ac:	cb 54       	subi	r28, 0x4B	; 75
    13ae:	d2 40       	sbci	r29, 0x02	; 2
    13b0:	c9 5b       	subi	r28, 0xB9	; 185
    13b2:	dd 4f       	sbci	r29, 0xFD	; 253
    13b4:	e8 81       	ld	r30, Y
    13b6:	f9 81       	ldd	r31, Y+1	; 0x01
    13b8:	c7 54       	subi	r28, 0x47	; 71
    13ba:	d2 40       	sbci	r29, 0x02	; 2
    13bc:	35 96       	adiw	r30, 0x05	; 5
    13be:	c9 5b       	subi	r28, 0xB9	; 185
    13c0:	dd 4f       	sbci	r29, 0xFD	; 253
    13c2:	e8 83       	st	Y, r30
    13c4:	f9 83       	std	Y+1, r31	; 0x01
    13c6:	c7 54       	subi	r28, 0x47	; 71
    13c8:	d2 40       	sbci	r29, 0x02	; 2
    13ca:	c3 5b       	subi	r28, 0xB3	; 179
    13cc:	dd 4f       	sbci	r29, 0xFD	; 253
    13ce:	e8 81       	ld	r30, Y
    13d0:	f9 81       	ldd	r31, Y+1	; 0x01
    13d2:	cd 54       	subi	r28, 0x4D	; 77
    13d4:	d2 40       	sbci	r29, 0x02	; 2
    13d6:	f6 96       	adiw	r30, 0x36	; 54
    13d8:	c3 5b       	subi	r28, 0xB3	; 179
    13da:	dd 4f       	sbci	r29, 0xFD	; 253
    13dc:	e8 83       	st	Y, r30
    13de:	f9 83       	std	Y+1, r31	; 0x01
    13e0:	cd 54       	subi	r28, 0x4D	; 77
    13e2:	d2 40       	sbci	r29, 0x02	; 2
    13e4:	c7 5b       	subi	r28, 0xB7	; 183
    13e6:	dd 4f       	sbci	r29, 0xFD	; 253
    13e8:	e8 81       	ld	r30, Y
    13ea:	f9 81       	ldd	r31, Y+1	; 0x01
    13ec:	c9 54       	subi	r28, 0x49	; 73
    13ee:	d2 40       	sbci	r29, 0x02	; 2
    13f0:	f6 96       	adiw	r30, 0x36	; 54
    13f2:	c7 5b       	subi	r28, 0xB7	; 183
    13f4:	dd 4f       	sbci	r29, 0xFD	; 253
    13f6:	e8 83       	st	Y, r30
    13f8:	f9 83       	std	Y+1, r31	; 0x01
    13fa:	c9 54       	subi	r28, 0x49	; 73
    13fc:	d2 40       	sbci	r29, 0x02	; 2
    13fe:	f6 e3       	ldi	r31, 0x36	; 54
    1400:	cf 0e       	add	r12, r31
    1402:	d1 1c       	adc	r13, r1
		}
				
		alert_status.overtemp = 0;				// reset the overtemp alert 
		
		// calculate the channel power
		for (i=0;i<NUMBEROFCHANNELS;i++)
    1404:	24 e0       	ldi	r18, 0x04	; 4
    1406:	a2 16       	cp	r10, r18
    1408:	b1 04       	cpc	r11, r1
    140a:	09 f0       	breq	.+2      	; 0x140e <main+0x6b2>
    140c:	a7 ce       	rjmp	.-690    	; 0x115c <main+0x400>
    140e:	8e 01       	movw	r16, r28
    1410:	0c 5f       	subi	r16, 0xFC	; 252
    1412:	1e 4f       	sbci	r17, 0xFE	; 254
    1414:	71 2c       	mov	r7, r1
    1416:	f1 2c       	mov	r15, r1
#include "TempSensor.h"
#include "EEPROM_data.h"
#include "AlphanumericDisplay.h"


int main(void)
    1418:	f8 01       	movw	r30, r16
    141a:	32 97       	sbiw	r30, 0x02	; 2
		alert_status.fanblock = 0;		// reset the fan block status
		
		// exchange channel with hardware timer
		for (i=0;i<NUMBEROFCHANNELS;i++)
		{
			timer_setPwm(i,channel_status[i].power);
    141c:	60 81       	ld	r22, Z
    141e:	8f 2d       	mov	r24, r15
    1420:	0e 94 f2 1e 	call	0x3de4	; 0x3de4 <timer_setPwm>
			channel_status[i].rpm = timer_getRpm(i);
    1424:	8f 2d       	mov	r24, r15
    1426:	0e 94 3c 1f 	call	0x3e78	; 0x3e78 <timer_getRpm>
#include "TempSensor.h"
#include "EEPROM_data.h"
#include "AlphanumericDisplay.h"


int main(void)
    142a:	f8 01       	movw	r30, r16
    142c:	34 97       	sbiw	r30, 0x04	; 4
		
		// exchange channel with hardware timer
		for (i=0;i<NUMBEROFCHANNELS;i++)
		{
			timer_setPwm(i,channel_status[i].power);
			channel_status[i].rpm = timer_getRpm(i);
    142e:	80 83       	st	Z, r24
    1430:	91 83       	std	Z+1, r25	; 0x01
			if (channel_status[i].status == on && channel_status[i].rpm == 0 && alert_data.fanblockEnable && i != 3)
    1432:	d8 01       	movw	r26, r16
    1434:	2c 91       	ld	r18, X
    1436:	22 30       	cpi	r18, 0x02	; 2
    1438:	71 f4       	brne	.+28     	; 0x1456 <main+0x6fa>
    143a:	89 2b       	or	r24, r25
    143c:	61 f4       	brne	.+24     	; 0x1456 <main+0x6fa>
    143e:	c7 5e       	subi	r28, 0xE7	; 231
    1440:	de 4f       	sbci	r29, 0xFE	; 254
    1442:	88 81       	ld	r24, Y
    1444:	c9 51       	subi	r28, 0x19	; 25
    1446:	d1 40       	sbci	r29, 0x01	; 1
    1448:	88 23       	and	r24, r24
    144a:	29 f0       	breq	.+10     	; 0x1456 <main+0x6fa>
    144c:	b3 e0       	ldi	r27, 0x03	; 3
    144e:	fb 16       	cp	r15, r27
    1450:	41 f0       	breq	.+16     	; 0x1462 <main+0x706>
			{
				alert_status.fanblock = 1;		// fan is blocked or not started correctly
    1452:	77 24       	eor	r7, r7
    1454:	73 94       	inc	r7
		}
		
		alert_status.fanblock = 0;		// reset the fan block status
		
		// exchange channel with hardware timer
		for (i=0;i<NUMBEROFCHANNELS;i++)
    1456:	f3 94       	inc	r15
    1458:	0b 5f       	subi	r16, 0xFB	; 251
    145a:	1f 4f       	sbci	r17, 0xFF	; 255
    145c:	e4 e0       	ldi	r30, 0x04	; 4
    145e:	fe 12       	cpse	r15, r30
    1460:	db cf       	rjmp	.-74     	; 0x1418 <main+0x6bc>
				alert_status.fanblock = 1;		// fan is blocked or not started correctly
			}			
		}
		
		// get liter per hour
		literPerHour = timer_getLH();
    1462:	0e 94 5f 1f 	call	0x3ebe	; 0x3ebe <timer_getLH>
    1466:	8e a3       	std	Y+38, r24	; 0x26
    1468:	9f a3       	std	Y+39, r25	; 0x27
		if (literPerHour < alert_data.minWaterFlow)
    146a:	21 e0       	ldi	r18, 0x01	; 1
    146c:	30 e0       	ldi	r19, 0x00	; 0
    146e:	c6 5e       	subi	r28, 0xE6	; 230
    1470:	de 4f       	sbci	r29, 0xFE	; 254
    1472:	48 81       	ld	r20, Y
    1474:	59 81       	ldd	r21, Y+1	; 0x01
    1476:	ca 51       	subi	r28, 0x1A	; 26
    1478:	d1 40       	sbci	r29, 0x01	; 1
    147a:	84 17       	cp	r24, r20
    147c:	95 07       	cpc	r25, r21
    147e:	10 f0       	brcs	.+4      	; 0x1484 <main+0x728>
    1480:	20 e0       	ldi	r18, 0x00	; 0
    1482:	30 e0       	ldi	r19, 0x00	; 0
		{
			alert_status.lowWaterFlow = 1;
    1484:	59 01       	movw	r10, r18
		
		
		
		
		// led exchange and calculating
		switch (led_data.mode)		
    1486:	cc 5e       	subi	r28, 0xEC	; 236
    1488:	de 4f       	sbci	r29, 0xFE	; 254
    148a:	88 81       	ld	r24, Y
    148c:	c4 51       	subi	r28, 0x14	; 20
    148e:	d1 40       	sbci	r29, 0x01	; 1
    1490:	88 23       	and	r24, r24
    1492:	21 f0       	breq	.+8      	; 0x149c <main+0x740>
    1494:	81 30       	cpi	r24, 0x01	; 1
    1496:	09 f0       	breq	.+2      	; 0x149a <main+0x73e>
    1498:	b1 c0       	rjmp	.+354    	; 0x15fc <main+0x8a0>
    149a:	19 c0       	rjmp	.+50     	; 0x14ce <main+0x772>
		{
			case 0:		// manual mode
				timer_setPwm(LED_RED,led_data.manualPower[0]);
    149c:	cb 5e       	subi	r28, 0xEB	; 235
    149e:	de 4f       	sbci	r29, 0xFE	; 254
    14a0:	68 81       	ld	r22, Y
    14a2:	c5 51       	subi	r28, 0x15	; 21
    14a4:	d1 40       	sbci	r29, 0x01	; 1
    14a6:	84 e0       	ldi	r24, 0x04	; 4
    14a8:	0e 94 f2 1e 	call	0x3de4	; 0x3de4 <timer_setPwm>
				timer_setPwm(LED_GREEN,led_data.manualPower[1]);
    14ac:	ca 5e       	subi	r28, 0xEA	; 234
    14ae:	de 4f       	sbci	r29, 0xFE	; 254
    14b0:	68 81       	ld	r22, Y
    14b2:	c6 51       	subi	r28, 0x16	; 22
    14b4:	d1 40       	sbci	r29, 0x01	; 1
    14b6:	85 e0       	ldi	r24, 0x05	; 5
    14b8:	0e 94 f2 1e 	call	0x3de4	; 0x3de4 <timer_setPwm>
				timer_setPwm(LED_BLUE,led_data.manualPower[2]);
    14bc:	c9 5e       	subi	r28, 0xE9	; 233
    14be:	de 4f       	sbci	r29, 0xFE	; 254
    14c0:	68 81       	ld	r22, Y
    14c2:	c7 51       	subi	r28, 0x17	; 23
    14c4:	d1 40       	sbci	r29, 0x01	; 1
    14c6:	86 e0       	ldi	r24, 0x06	; 6
    14c8:	0e 94 f2 1e 	call	0x3de4	; 0x3de4 <timer_setPwm>
				break;
    14cc:	aa c0       	rjmp	.+340    	; 0x1622 <main+0x8c6>
				
			case 1:
				// Do calculation with ledCtr, timer_setPWM(LED_X,value), and local variables only!
				if (ledCtr < 100)
    14ce:	cb 5a       	subi	r28, 0xAB	; 171
    14d0:	dd 4f       	sbci	r29, 0xFD	; 253
    14d2:	28 81       	ld	r18, Y
    14d4:	39 81       	ldd	r19, Y+1	; 0x01
    14d6:	c5 55       	subi	r28, 0x55	; 85
    14d8:	d2 40       	sbci	r29, 0x02	; 2
    14da:	24 36       	cpi	r18, 0x64	; 100
    14dc:	31 05       	cpc	r19, r1
    14de:	88 f4       	brcc	.+34     	; 0x1502 <main+0x7a6>
				{
					timer_setPwm(LED_RED,ledCtr);
    14e0:	cb 5a       	subi	r28, 0xAB	; 171
    14e2:	dd 4f       	sbci	r29, 0xFD	; 253
    14e4:	68 81       	ld	r22, Y
    14e6:	c5 55       	subi	r28, 0x55	; 85
    14e8:	d2 40       	sbci	r29, 0x02	; 2
    14ea:	84 e0       	ldi	r24, 0x04	; 4
    14ec:	0e 94 f2 1e 	call	0x3de4	; 0x3de4 <timer_setPwm>
					timer_setPwm(LED_GREEN,0);
    14f0:	60 e0       	ldi	r22, 0x00	; 0
    14f2:	85 e0       	ldi	r24, 0x05	; 5
    14f4:	0e 94 f2 1e 	call	0x3de4	; 0x3de4 <timer_setPwm>
					timer_setPwm(LED_BLUE,0);
    14f8:	60 e0       	ldi	r22, 0x00	; 0
    14fa:	86 e0       	ldi	r24, 0x06	; 6
    14fc:	0e 94 f2 1e 	call	0x3de4	; 0x3de4 <timer_setPwm>
    1500:	90 c0       	rjmp	.+288    	; 0x1622 <main+0x8c6>
				} 
				else if(ledCtr < 200)
    1502:	cb 5a       	subi	r28, 0xAB	; 171
    1504:	dd 4f       	sbci	r29, 0xFD	; 253
    1506:	88 81       	ld	r24, Y
    1508:	99 81       	ldd	r25, Y+1	; 0x01
    150a:	c5 55       	subi	r28, 0x55	; 85
    150c:	d2 40       	sbci	r29, 0x02	; 2
    150e:	88 3c       	cpi	r24, 0xC8	; 200
    1510:	91 05       	cpc	r25, r1
    1512:	70 f4       	brcc	.+28     	; 0x1530 <main+0x7d4>
				{
					timer_setPwm(LED_RED,200-ledCtr);
    1514:	68 ec       	ldi	r22, 0xC8	; 200
    1516:	68 1b       	sub	r22, r24
    1518:	84 e0       	ldi	r24, 0x04	; 4
    151a:	0e 94 f2 1e 	call	0x3de4	; 0x3de4 <timer_setPwm>
					timer_setPwm(LED_GREEN,0);
    151e:	60 e0       	ldi	r22, 0x00	; 0
    1520:	85 e0       	ldi	r24, 0x05	; 5
    1522:	0e 94 f2 1e 	call	0x3de4	; 0x3de4 <timer_setPwm>
					timer_setPwm(LED_BLUE,0);
    1526:	60 e0       	ldi	r22, 0x00	; 0
    1528:	86 e0       	ldi	r24, 0x06	; 6
    152a:	0e 94 f2 1e 	call	0x3de4	; 0x3de4 <timer_setPwm>
    152e:	79 c0       	rjmp	.+242    	; 0x1622 <main+0x8c6>
				}
				else if (ledCtr < 300)
    1530:	cb 5a       	subi	r28, 0xAB	; 171
    1532:	dd 4f       	sbci	r29, 0xFD	; 253
    1534:	a8 81       	ld	r26, Y
    1536:	b9 81       	ldd	r27, Y+1	; 0x01
    1538:	c5 55       	subi	r28, 0x55	; 85
    153a:	d2 40       	sbci	r29, 0x02	; 2
    153c:	ac 32       	cpi	r26, 0x2C	; 44
    153e:	b1 40       	sbci	r27, 0x01	; 1
    1540:	90 f4       	brcc	.+36     	; 0x1566 <main+0x80a>
				{
					timer_setPwm(LED_GREEN,ledCtr-200);
    1542:	cb 5a       	subi	r28, 0xAB	; 171
    1544:	dd 4f       	sbci	r29, 0xFD	; 253
    1546:	68 81       	ld	r22, Y
    1548:	c5 55       	subi	r28, 0x55	; 85
    154a:	d2 40       	sbci	r29, 0x02	; 2
    154c:	68 5c       	subi	r22, 0xC8	; 200
    154e:	85 e0       	ldi	r24, 0x05	; 5
    1550:	0e 94 f2 1e 	call	0x3de4	; 0x3de4 <timer_setPwm>
					timer_setPwm(LED_RED,0);
    1554:	60 e0       	ldi	r22, 0x00	; 0
    1556:	84 e0       	ldi	r24, 0x04	; 4
    1558:	0e 94 f2 1e 	call	0x3de4	; 0x3de4 <timer_setPwm>
					timer_setPwm(LED_BLUE,0);
    155c:	60 e0       	ldi	r22, 0x00	; 0
    155e:	86 e0       	ldi	r24, 0x06	; 6
    1560:	0e 94 f2 1e 	call	0x3de4	; 0x3de4 <timer_setPwm>
    1564:	5e c0       	rjmp	.+188    	; 0x1622 <main+0x8c6>
				}
				else if (ledCtr < 400)
    1566:	cb 5a       	subi	r28, 0xAB	; 171
    1568:	dd 4f       	sbci	r29, 0xFD	; 253
    156a:	28 81       	ld	r18, Y
    156c:	39 81       	ldd	r19, Y+1	; 0x01
    156e:	c5 55       	subi	r28, 0x55	; 85
    1570:	d2 40       	sbci	r29, 0x02	; 2
    1572:	20 39       	cpi	r18, 0x90	; 144
    1574:	41 e0       	ldi	r20, 0x01	; 1
    1576:	34 07       	cpc	r19, r20
    1578:	70 f4       	brcc	.+28     	; 0x1596 <main+0x83a>
				{
					timer_setPwm(LED_GREEN,400-ledCtr);
    157a:	60 e9       	ldi	r22, 0x90	; 144
    157c:	62 1b       	sub	r22, r18
    157e:	85 e0       	ldi	r24, 0x05	; 5
    1580:	0e 94 f2 1e 	call	0x3de4	; 0x3de4 <timer_setPwm>
					timer_setPwm(LED_RED,0);
    1584:	60 e0       	ldi	r22, 0x00	; 0
    1586:	84 e0       	ldi	r24, 0x04	; 4
    1588:	0e 94 f2 1e 	call	0x3de4	; 0x3de4 <timer_setPwm>
					timer_setPwm(LED_BLUE,0);
    158c:	60 e0       	ldi	r22, 0x00	; 0
    158e:	86 e0       	ldi	r24, 0x06	; 6
    1590:	0e 94 f2 1e 	call	0x3de4	; 0x3de4 <timer_setPwm>
    1594:	46 c0       	rjmp	.+140    	; 0x1622 <main+0x8c6>
				}
				else if (ledCtr < 500)
    1596:	cb 5a       	subi	r28, 0xAB	; 171
    1598:	dd 4f       	sbci	r29, 0xFD	; 253
    159a:	88 81       	ld	r24, Y
    159c:	99 81       	ldd	r25, Y+1	; 0x01
    159e:	c5 55       	subi	r28, 0x55	; 85
    15a0:	d2 40       	sbci	r29, 0x02	; 2
    15a2:	84 3f       	cpi	r24, 0xF4	; 244
    15a4:	91 40       	sbci	r25, 0x01	; 1
    15a6:	90 f4       	brcc	.+36     	; 0x15cc <main+0x870>
				{
					timer_setPwm(LED_BLUE,ledCtr-400);
    15a8:	cb 5a       	subi	r28, 0xAB	; 171
    15aa:	dd 4f       	sbci	r29, 0xFD	; 253
    15ac:	68 81       	ld	r22, Y
    15ae:	c5 55       	subi	r28, 0x55	; 85
    15b0:	d2 40       	sbci	r29, 0x02	; 2
    15b2:	60 59       	subi	r22, 0x90	; 144
    15b4:	86 e0       	ldi	r24, 0x06	; 6
    15b6:	0e 94 f2 1e 	call	0x3de4	; 0x3de4 <timer_setPwm>
					timer_setPwm(LED_RED,0);
    15ba:	60 e0       	ldi	r22, 0x00	; 0
    15bc:	84 e0       	ldi	r24, 0x04	; 4
    15be:	0e 94 f2 1e 	call	0x3de4	; 0x3de4 <timer_setPwm>
					timer_setPwm(LED_GREEN,0);
    15c2:	60 e0       	ldi	r22, 0x00	; 0
    15c4:	85 e0       	ldi	r24, 0x05	; 5
    15c6:	0e 94 f2 1e 	call	0x3de4	; 0x3de4 <timer_setPwm>
    15ca:	2b c0       	rjmp	.+86     	; 0x1622 <main+0x8c6>
				}
				else if (ledCtr < 600)
    15cc:	cb 5a       	subi	r28, 0xAB	; 171
    15ce:	dd 4f       	sbci	r29, 0xFD	; 253
    15d0:	e8 81       	ld	r30, Y
    15d2:	f9 81       	ldd	r31, Y+1	; 0x01
    15d4:	c5 55       	subi	r28, 0x55	; 85
    15d6:	d2 40       	sbci	r29, 0x02	; 2
    15d8:	e8 35       	cpi	r30, 0x58	; 88
    15da:	22 e0       	ldi	r18, 0x02	; 2
    15dc:	f2 07       	cpc	r31, r18
    15de:	d8 f4       	brcc	.+54     	; 0x1616 <main+0x8ba>
				{
					timer_setPwm(LED_BLUE,600-ledCtr);
    15e0:	68 e5       	ldi	r22, 0x58	; 88
    15e2:	6e 1b       	sub	r22, r30
    15e4:	86 e0       	ldi	r24, 0x06	; 6
    15e6:	0e 94 f2 1e 	call	0x3de4	; 0x3de4 <timer_setPwm>
					timer_setPwm(LED_RED,0);
    15ea:	60 e0       	ldi	r22, 0x00	; 0
    15ec:	84 e0       	ldi	r24, 0x04	; 4
    15ee:	0e 94 f2 1e 	call	0x3de4	; 0x3de4 <timer_setPwm>
					timer_setPwm(LED_GREEN,0);
    15f2:	60 e0       	ldi	r22, 0x00	; 0
    15f4:	85 e0       	ldi	r24, 0x05	; 5
    15f6:	0e 94 f2 1e 	call	0x3de4	; 0x3de4 <timer_setPwm>
    15fa:	13 c0       	rjmp	.+38     	; 0x1622 <main+0x8c6>
					ledCtr = 0;
				}
				break;
				
			default:	// wrong mode, red led on
				timer_setPwm(LED_BLUE,0);
    15fc:	60 e0       	ldi	r22, 0x00	; 0
    15fe:	86 e0       	ldi	r24, 0x06	; 6
    1600:	0e 94 f2 1e 	call	0x3de4	; 0x3de4 <timer_setPwm>
				timer_setPwm(LED_GREEN,0);
    1604:	60 e0       	ldi	r22, 0x00	; 0
    1606:	85 e0       	ldi	r24, 0x05	; 5
    1608:	0e 94 f2 1e 	call	0x3de4	; 0x3de4 <timer_setPwm>
				timer_setPwm(LED_RED,100);
    160c:	64 e6       	ldi	r22, 0x64	; 100
    160e:	84 e0       	ldi	r24, 0x04	; 4
    1610:	0e 94 f2 1e 	call	0x3de4	; 0x3de4 <timer_setPwm>
				break;				
    1614:	06 c0       	rjmp	.+12     	; 0x1622 <main+0x8c6>
					timer_setPwm(LED_RED,0);
					timer_setPwm(LED_GREEN,0);
				} 
				else
				{
					ledCtr = 0;
    1616:	cb 5a       	subi	r28, 0xAB	; 171
    1618:	dd 4f       	sbci	r29, 0xFD	; 253
    161a:	18 82       	st	Y, r1
    161c:	19 82       	std	Y+1, r1	; 0x01
    161e:	c5 55       	subi	r28, 0x55	; 85
    1620:	d2 40       	sbci	r29, 0x02	; 2
		
				
			
		
		// each 524ms
		if (timer_524ms())
    1622:	0e 94 80 1f 	call	0x3f00	; 0x3f00 <timer_524ms>
    1626:	88 23       	and	r24, r24
    1628:	09 f4       	brne	.+2      	; 0x162c <main+0x8d0>
    162a:	bf c0       	rjmp	.+382    	; 0x17aa <main+0xa4e>
#include "TempSensor.h"
#include "EEPROM_data.h"
#include "AlphanumericDisplay.h"


int main(void)
    162c:	80 e0       	ldi	r24, 0x00	; 0
    162e:	91 e0       	ldi	r25, 0x01	; 1
    1630:	8c 0f       	add	r24, r28
    1632:	9d 1f       	adc	r25, r29
    1634:	47 96       	adiw	r24, 0x17	; 23
    1636:	fe 01       	movw	r30, r28
    1638:	ec 5f       	subi	r30, 0xFC	; 252
    163a:	fe 4f       	sbci	r31, 0xFE	; 254
					channel_status[i].startupTimer--;
				}
				if (channel_status[i].startupTimer == 1)
				{
					channel_status[i].startupTimer = 0;
					channel_status[i].status = on;		// go to on if startup time is over
    163c:	32 e0       	ldi	r19, 0x02	; 2
    163e:	c6 5a       	subi	r28, 0xA6	; 166
    1640:	dd 4f       	sbci	r29, 0xFD	; 253
    1642:	a8 81       	ld	r26, Y
    1644:	b9 81       	ldd	r27, Y+1	; 0x01
    1646:	ca 55       	subi	r28, 0x5A	; 90
    1648:	d2 40       	sbci	r29, 0x02	; 2
    164a:	bf 01       	movw	r22, r30
#include "TempSensor.h"
#include "EEPROM_data.h"
#include "AlphanumericDisplay.h"


int main(void)
    164c:	ad 01       	movw	r20, r26
		if (timer_524ms())
		{			
			// decrement the channel startup timers
			for (i=0;i<NUMBEROFCHANNELS;i++)
			{
				if (channel_status[i].startupTimer > 1)
    164e:	2c 91       	ld	r18, X
    1650:	22 30       	cpi	r18, 0x02	; 2
    1652:	10 f0       	brcs	.+4      	; 0x1658 <main+0x8fc>
				{
					channel_status[i].startupTimer--;
    1654:	21 50       	subi	r18, 0x01	; 1
    1656:	2c 93       	st	X, r18
				}
				if (channel_status[i].startupTimer == 1)
    1658:	fa 01       	movw	r30, r20
    165a:	20 81       	ld	r18, Z
    165c:	21 30       	cpi	r18, 0x01	; 1
    165e:	19 f4       	brne	.+6      	; 0x1666 <main+0x90a>
				{
					channel_status[i].startupTimer = 0;
    1660:	10 82       	st	Z, r1
					channel_status[i].status = on;		// go to on if startup time is over
    1662:	fb 01       	movw	r30, r22
    1664:	30 83       	st	Z, r19
    1666:	15 96       	adiw	r26, 0x05	; 5
    1668:	6b 5f       	subi	r22, 0xFB	; 251
    166a:	7f 4f       	sbci	r23, 0xFF	; 255
		
		// each 524ms
		if (timer_524ms())
		{			
			// decrement the channel startup timers
			for (i=0;i<NUMBEROFCHANNELS;i++)
    166c:	a8 17       	cp	r26, r24
    166e:	b9 07       	cpc	r27, r25
    1670:	69 f7       	brne	.-38     	; 0x164c <main+0x8f0>
					channel_status[i].status = on;		// go to on if startup time is over
				}
			}
			
			// increment the spare temperature timer
			if (spare_temperatureTimer < 255)
    1672:	cc 5a       	subi	r28, 0xAC	; 172
    1674:	dd 4f       	sbci	r29, 0xFD	; 253
    1676:	f8 81       	ld	r31, Y
    1678:	c4 55       	subi	r28, 0x54	; 84
    167a:	d2 40       	sbci	r29, 0x02	; 2
    167c:	ff 3f       	cpi	r31, 0xFF	; 255
    167e:	31 f0       	breq	.+12     	; 0x168c <main+0x930>
			{
				spare_temperatureTimer ++;
    1680:	ff 5f       	subi	r31, 0xFF	; 255
    1682:	cc 5a       	subi	r28, 0xAC	; 172
    1684:	dd 4f       	sbci	r29, 0xFD	; 253
    1686:	f8 83       	st	Y, r31
    1688:	c4 55       	subi	r28, 0x54	; 84
    168a:	d2 40       	sbci	r29, 0x02	; 2
			}
			
			// beeper
			if ((alert_status.fanblock || alert_status.lowWaterFlow || alert_status.overtemp) && buzzerEnable)
    168c:	71 10       	cpse	r7, r1
    168e:	05 c0       	rjmp	.+10     	; 0x169a <main+0x93e>
    1690:	a1 14       	cp	r10, r1
    1692:	b1 04       	cpc	r11, r1
    1694:	11 f4       	brne	.+4      	; 0x169a <main+0x93e>
    1696:	22 20       	and	r2, r2
    1698:	59 f0       	breq	.+22     	; 0x16b0 <main+0x954>
    169a:	c4 58       	subi	r28, 0x84	; 132
    169c:	dd 4f       	sbci	r29, 0xFD	; 253
    169e:	28 81       	ld	r18, Y
    16a0:	cc 57       	subi	r28, 0x7C	; 124
    16a2:	d2 40       	sbci	r29, 0x02	; 2
    16a4:	22 23       	and	r18, r18
    16a6:	21 f0       	breq	.+8      	; 0x16b0 <main+0x954>
			{
				// toggle beeper
				PORTR_OUTTGL = 1;
    16a8:	81 e0       	ldi	r24, 0x01	; 1
    16aa:	80 93 e7 07 	sts	0x07E7, r24
    16ae:	03 c0       	rjmp	.+6      	; 0x16b6 <main+0x95a>
			} 
			else
			{
				// turn beeper off
				PORTR_OUTCLR = 1;
    16b0:	81 e0       	ldi	r24, 0x01	; 1
    16b2:	80 93 e6 07 	sts	0x07E6, r24
			}
			
			
			// display
			screenCountdown --;						
    16b6:	c9 5a       	subi	r28, 0xA9	; 169
    16b8:	dd 4f       	sbci	r29, 0xFD	; 253
    16ba:	38 81       	ld	r19, Y
    16bc:	c7 55       	subi	r28, 0x57	; 87
    16be:	d2 40       	sbci	r29, 0x02	; 2
    16c0:	31 50       	subi	r19, 0x01	; 1
    16c2:	c9 5a       	subi	r28, 0xA9	; 169
    16c4:	dd 4f       	sbci	r29, 0xFD	; 253
    16c6:	38 83       	st	Y, r19
    16c8:	c7 55       	subi	r28, 0x57	; 87
    16ca:	d2 40       	sbci	r29, 0x02	; 2
			if (screenCountdown == 0)
    16cc:	31 11       	cpse	r19, r1
    16ce:	2a c0       	rjmp	.+84     	; 0x1724 <main+0x9c8>
			{
				screenIndex ++;
    16d0:	c8 5a       	subi	r28, 0xA8	; 168
    16d2:	dd 4f       	sbci	r29, 0xFD	; 253
    16d4:	48 81       	ld	r20, Y
    16d6:	c8 55       	subi	r28, 0x58	; 88
    16d8:	d2 40       	sbci	r29, 0x02	; 2
    16da:	4f 5f       	subi	r20, 0xFF	; 255
    16dc:	c8 5a       	subi	r28, 0xA8	; 168
    16de:	dd 4f       	sbci	r29, 0xFD	; 253
    16e0:	48 83       	st	Y, r20
    16e2:	c8 55       	subi	r28, 0x58	; 88
    16e4:	d2 40       	sbci	r29, 0x02	; 2
				if (alphaDisplay.screen[screenIndex] == 0)		// screen is not available
    16e6:	e7 e2       	ldi	r30, 0x27	; 39
    16e8:	f1 e0       	ldi	r31, 0x01	; 1
    16ea:	ec 0f       	add	r30, r28
    16ec:	fd 1f       	adc	r31, r29
    16ee:	e4 0f       	add	r30, r20
    16f0:	f1 1d       	adc	r31, r1
    16f2:	82 81       	ldd	r24, Z+2	; 0x02
    16f4:	81 11       	cpse	r24, r1
    16f6:	05 c0       	rjmp	.+10     	; 0x1702 <main+0x9a6>
				{
					screenIndex = 0;		// go to first screen					
    16f8:	c8 5a       	subi	r28, 0xA8	; 168
    16fa:	dd 4f       	sbci	r29, 0xFD	; 253
    16fc:	18 82       	st	Y, r1
    16fe:	c8 55       	subi	r28, 0x58	; 88
    1700:	d2 40       	sbci	r29, 0x02	; 2
				} 
				screenCountdown = alphaDisplay.screen[screenIndex];				
    1702:	e7 e2       	ldi	r30, 0x27	; 39
    1704:	f1 e0       	ldi	r31, 0x01	; 1
    1706:	ec 0f       	add	r30, r28
    1708:	fd 1f       	adc	r31, r29
    170a:	c8 5a       	subi	r28, 0xA8	; 168
    170c:	dd 4f       	sbci	r29, 0xFD	; 253
    170e:	98 81       	ld	r25, Y
    1710:	c8 55       	subi	r28, 0x58	; 88
    1712:	d2 40       	sbci	r29, 0x02	; 2
    1714:	e9 0f       	add	r30, r25
    1716:	f1 1d       	adc	r31, r1
    1718:	a2 81       	ldd	r26, Z+2	; 0x02
    171a:	c9 5a       	subi	r28, 0xA9	; 169
    171c:	dd 4f       	sbci	r29, 0xFD	; 253
    171e:	a8 83       	st	Y, r26
    1720:	c7 55       	subi	r28, 0x57	; 87
    1722:	d2 40       	sbci	r29, 0x02	; 2
			}
			if (screenOverlayMessageCountdown == 0)
    1724:	c4 5a       	subi	r28, 0xA4	; 164
    1726:	dd 4f       	sbci	r29, 0xFD	; 253
    1728:	b8 81       	ld	r27, Y
    172a:	cc 55       	subi	r28, 0x5C	; 92
    172c:	d2 40       	sbci	r29, 0x02	; 2
    172e:	b1 11       	cpse	r27, r1
    1730:	31 c0       	rjmp	.+98     	; 0x1794 <main+0xa38>
			{
				// if no alert is active, show normal display content
				if (alert_status.fanblock == 0 && alert_status.lowWaterFlow == 0 && alert_status.overtemp == 0)
    1732:	71 10       	cpse	r7, r1
    1734:	28 c0       	rjmp	.+80     	; 0x1786 <main+0xa2a>
    1736:	a1 14       	cp	r10, r1
    1738:	b1 04       	cpc	r11, r1
    173a:	29 f5       	brne	.+74     	; 0x1786 <main+0xa2a>
    173c:	21 10       	cpse	r2, r1
    173e:	23 c0       	rjmp	.+70     	; 0x1786 <main+0xa2a>
				{
					alpha_updateScreen(screenIndex,alphaDisplay.content,temperature,time,pcStatus,&literPerHour,channel_status);
    1740:	c1 2c       	mov	r12, r1
    1742:	dd 24       	eor	r13, r13
    1744:	d3 94       	inc	r13
    1746:	cc 0e       	add	r12, r28
    1748:	dd 1e       	adc	r13, r29
    174a:	0f 2e       	mov	r0, r31
    174c:	f6 e2       	ldi	r31, 0x26	; 38
    174e:	ef 2e       	mov	r14, r31
    1750:	f1 2c       	mov	r15, r1
    1752:	f0 2d       	mov	r31, r0
    1754:	ec 0e       	add	r14, r28
    1756:	fd 1e       	adc	r15, r29
    1758:	8e 01       	movw	r16, r28
    175a:	01 5e       	subi	r16, 0xE1	; 225
    175c:	1e 4f       	sbci	r17, 0xFE	; 254
    175e:	9e 01       	movw	r18, r28
    1760:	24 5e       	subi	r18, 0xE4	; 228
    1762:	3e 4f       	sbci	r19, 0xFE	; 254
    1764:	ae 01       	movw	r20, r28
    1766:	4a 5f       	subi	r20, 0xFA	; 250
    1768:	5f 4f       	sbci	r21, 0xFF	; 255
    176a:	c1 58       	subi	r28, 0x81	; 129
    176c:	dd 4f       	sbci	r29, 0xFD	; 253
    176e:	68 81       	ld	r22, Y
    1770:	79 81       	ldd	r23, Y+1	; 0x01
    1772:	cf 57       	subi	r28, 0x7F	; 127
    1774:	d2 40       	sbci	r29, 0x02	; 2
    1776:	c8 5a       	subi	r28, 0xA8	; 168
    1778:	dd 4f       	sbci	r29, 0xFD	; 253
    177a:	88 81       	ld	r24, Y
    177c:	c8 55       	subi	r28, 0x58	; 88
    177e:	d2 40       	sbci	r29, 0x02	; 2
    1780:	0e 94 38 03 	call	0x670	; 0x670 <alpha_updateScreen>
    1784:	12 c0       	rjmp	.+36     	; 0x17aa <main+0xa4e>
				}
				else // else show the alert
				{
					alpha_displayAlert(alert_status);
    1786:	62 2d       	mov	r22, r2
    1788:	77 2d       	mov	r23, r7
    178a:	8a 2d       	mov	r24, r10
    178c:	9b 2d       	mov	r25, r11
    178e:	0e 94 7d 05 	call	0xafa	; 0xafa <alpha_displayAlert>
    1792:	0b c0       	rjmp	.+22     	; 0x17aa <main+0xa4e>
				}
			} 
			else
			{
				screenOverlayMessageCountdown--;
    1794:	c4 5a       	subi	r28, 0xA4	; 164
    1796:	dd 4f       	sbci	r29, 0xFD	; 253
    1798:	e8 81       	ld	r30, Y
    179a:	cc 55       	subi	r28, 0x5C	; 92
    179c:	d2 40       	sbci	r29, 0x02	; 2
    179e:	e1 50       	subi	r30, 0x01	; 1
    17a0:	c4 5a       	subi	r28, 0xA4	; 164
    17a2:	dd 4f       	sbci	r29, 0xFD	; 253
    17a4:	e8 83       	st	Y, r30
    17a6:	cc 55       	subi	r28, 0x5C	; 92
    17a8:	d2 40       	sbci	r29, 0x02	; 2
			
				
		}
			
		// each 100ms
		if (timer_100ms())
    17aa:	0e 94 8a 1f 	call	0x3f14	; 0x3f14 <timer_100ms>
    17ae:	88 23       	and	r24, r24
    17b0:	09 f4       	brne	.+2      	; 0x17b4 <main+0xa58>
    17b2:	68 c1       	rjmp	.+720    	; 0x1a84 <main+0xd28>
    17b4:	4e 01       	movw	r8, r28
    17b6:	f6 e0       	ldi	r31, 0x06	; 6
    17b8:	8f 0e       	add	r8, r31
    17ba:	91 1c       	adc	r9, r1
#include "TempSensor.h"
#include "EEPROM_data.h"
#include "AlphanumericDisplay.h"


int main(void)
    17bc:	7e 01       	movw	r14, r28
    17be:	26 e1       	ldi	r18, 0x16	; 22
    17c0:	e2 0e       	add	r14, r18
    17c2:	f1 1c       	adc	r15, r1
    17c4:	84 01       	movw	r16, r8
		if (timer_100ms())
		{
			// get the temperatures
			for (i=0;i<16;i++)
			{
				temperature[i] = tempSensor_getTemp(i);		// read out up to 8 NTC-Sensors and 8 1-Wire sensors
    17c6:	80 2f       	mov	r24, r16
    17c8:	88 19       	sub	r24, r8
    17ca:	0e 94 05 1d 	call	0x3a0a	; 0x3a0a <tempSensor_getTemp>
    17ce:	d8 01       	movw	r26, r16
    17d0:	8d 93       	st	X+, r24
    17d2:	8d 01       	movw	r16, r26
			
		// each 100ms
		if (timer_100ms())
		{
			// get the temperatures
			for (i=0;i<16;i++)
    17d4:	ae 15       	cp	r26, r14
    17d6:	bf 05       	cpc	r27, r15
    17d8:	b1 f7       	brne	.-20     	; 0x17c6 <main+0xa6a>
			{
				temperature[i] = tempSensor_getTemp(i);		// read out up to 8 NTC-Sensors and 8 1-Wire sensors
			}
						
			
			ledCtr++;
    17da:	cb 5a       	subi	r28, 0xAB	; 171
    17dc:	dd 4f       	sbci	r29, 0xFD	; 253
    17de:	e8 81       	ld	r30, Y
    17e0:	f9 81       	ldd	r31, Y+1	; 0x01
    17e2:	c5 55       	subi	r28, 0x55	; 85
    17e4:	d2 40       	sbci	r29, 0x02	; 2
    17e6:	31 96       	adiw	r30, 0x01	; 1
    17e8:	cb 5a       	subi	r28, 0xAB	; 171
    17ea:	dd 4f       	sbci	r29, 0xFD	; 253
    17ec:	e8 83       	st	Y, r30
    17ee:	f9 83       	std	Y+1, r31	; 0x01
    17f0:	c5 55       	subi	r28, 0x55	; 85
    17f2:	d2 40       	sbci	r29, 0x02	; 2
			
			// check switch 1, left button
			if (SWITCH1)
    17f4:	80 91 68 06 	lds	r24, 0x0668
    17f8:	84 ff       	sbrs	r24, 4
    17fa:	02 c0       	rjmp	.+4      	; 0x1800 <main+0xaa4>
    17fc:	0c 94 5e 16 	jmp	0x2cbc	; 0x2cbc <main+0x1f60>
			{
				if (switch1_ctr < 255)
    1800:	c7 59       	subi	r28, 0x97	; 151
    1802:	dd 4f       	sbci	r29, 0xFD	; 253
    1804:	f8 81       	ld	r31, Y
    1806:	c9 56       	subi	r28, 0x69	; 105
    1808:	d2 40       	sbci	r29, 0x02	; 2
    180a:	ff 3f       	cpi	r31, 0xFF	; 255
    180c:	91 f1       	breq	.+100    	; 0x1872 <main+0xb16>
				{
					switch1_ctr++;
    180e:	ff 5f       	subi	r31, 0xFF	; 255
    1810:	c7 59       	subi	r28, 0x97	; 151
    1812:	dd 4f       	sbci	r29, 0xFD	; 253
    1814:	f8 83       	st	Y, r31
    1816:	c9 56       	subi	r28, 0x69	; 105
    1818:	d2 40       	sbci	r29, 0x02	; 2
			else
			{
				switch1_ctr = 0;
			}
			
			if (switch1_ctr == 2)
    181a:	f2 30       	cpi	r31, 0x02	; 2
    181c:	51 f5       	brne	.+84     	; 0x1872 <main+0xb16>
			{
				if (buzzerEnable)
    181e:	c4 58       	subi	r28, 0x84	; 132
    1820:	dd 4f       	sbci	r29, 0xFD	; 253
    1822:	28 81       	ld	r18, Y
    1824:	cc 57       	subi	r28, 0x7C	; 124
    1826:	d2 40       	sbci	r29, 0x02	; 2
    1828:	22 23       	and	r18, r18
    182a:	99 f0       	breq	.+38     	; 0x1852 <main+0xaf6>
				{
					buzzerEnable = 0;
					// turn beeper off
					PORTR_OUTCLR = 1;
    182c:	81 e0       	ldi	r24, 0x01	; 1
    182e:	80 93 e6 07 	sts	0x07E6, r24
					alpha_displayOverlayMessage("buzzer disabled");
    1832:	84 e4       	ldi	r24, 0x44	; 68
    1834:	90 e2       	ldi	r25, 0x20	; 32
    1836:	0e 94 3a 06 	call	0xc74	; 0xc74 <alpha_displayOverlayMessage>
			
			if (switch1_ctr == 2)
			{
				if (buzzerEnable)
				{
					buzzerEnable = 0;
    183a:	c4 58       	subi	r28, 0x84	; 132
    183c:	dd 4f       	sbci	r29, 0xFD	; 253
    183e:	18 82       	st	Y, r1
    1840:	cc 57       	subi	r28, 0x7C	; 124
    1842:	d2 40       	sbci	r29, 0x02	; 2
				else
				{
					buzzerEnable = 1;
					alpha_displayOverlayMessage("buzzer enabled");
				}
				screenOverlayMessageCountdown = 2;				
    1844:	32 e0       	ldi	r19, 0x02	; 2
    1846:	c4 5a       	subi	r28, 0xA4	; 164
    1848:	dd 4f       	sbci	r29, 0xFD	; 253
    184a:	38 83       	st	Y, r19
    184c:	cc 55       	subi	r28, 0x5C	; 92
    184e:	d2 40       	sbci	r29, 0x02	; 2
    1850:	10 c0       	rjmp	.+32     	; 0x1872 <main+0xb16>
					alpha_displayOverlayMessage("buzzer disabled");
				}
				else
				{
					buzzerEnable = 1;
					alpha_displayOverlayMessage("buzzer enabled");
    1852:	84 e5       	ldi	r24, 0x54	; 84
    1854:	90 e2       	ldi	r25, 0x20	; 32
    1856:	0e 94 3a 06 	call	0xc74	; 0xc74 <alpha_displayOverlayMessage>
					PORTR_OUTCLR = 1;
					alpha_displayOverlayMessage("buzzer disabled");
				}
				else
				{
					buzzerEnable = 1;
    185a:	41 e0       	ldi	r20, 0x01	; 1
    185c:	c4 58       	subi	r28, 0x84	; 132
    185e:	dd 4f       	sbci	r29, 0xFD	; 253
    1860:	48 83       	st	Y, r20
    1862:	cc 57       	subi	r28, 0x7C	; 124
    1864:	d2 40       	sbci	r29, 0x02	; 2
					alpha_displayOverlayMessage("buzzer enabled");
				}
				screenOverlayMessageCountdown = 2;				
    1866:	82 e0       	ldi	r24, 0x02	; 2
    1868:	c4 5a       	subi	r28, 0xA4	; 164
    186a:	dd 4f       	sbci	r29, 0xFD	; 253
    186c:	88 83       	st	Y, r24
    186e:	cc 55       	subi	r28, 0x5C	; 92
    1870:	d2 40       	sbci	r29, 0x02	; 2
			}
			
			// check the next button (switch 2, right button)
			if (SWITCH2)
    1872:	80 91 28 06 	lds	r24, 0x0628
    1876:	80 ff       	sbrs	r24, 0
    1878:	02 c0       	rjmp	.+4      	; 0x187e <main+0xb22>
    187a:	0c 94 65 16 	jmp	0x2cca	; 0x2cca <main+0x1f6e>
			{				
				if (switch2_ctr < 255)
    187e:	c7 5a       	subi	r28, 0xA7	; 167
    1880:	dd 4f       	sbci	r29, 0xFD	; 253
    1882:	98 81       	ld	r25, Y
    1884:	c9 55       	subi	r28, 0x59	; 89
    1886:	d2 40       	sbci	r29, 0x02	; 2
    1888:	9f 3f       	cpi	r25, 0xFF	; 255
    188a:	41 f0       	breq	.+16     	; 0x189c <main+0xb40>
				{					
					switch2_ctr++;					
    188c:	9f 5f       	subi	r25, 0xFF	; 255
    188e:	c7 5a       	subi	r28, 0xA7	; 167
    1890:	dd 4f       	sbci	r29, 0xFD	; 253
    1892:	98 83       	st	Y, r25
    1894:	c9 55       	subi	r28, 0x59	; 89
    1896:	d2 40       	sbci	r29, 0x02	; 2
				switch2_ctr = 0;
			}
			
			
			// change display content if button 2 is short pressed or every 1 second pressed
			if (switch2_ctr == 10)
    1898:	9a 30       	cpi	r25, 0x0A	; 10
    189a:	49 f0       	breq	.+18     	; 0x18ae <main+0xb52>
			{
				switch2_ctr = 1;
			}
			
			if (switch2_ctr == 1)
    189c:	c7 5a       	subi	r28, 0xA7	; 167
    189e:	dd 4f       	sbci	r29, 0xFD	; 253
    18a0:	a8 81       	ld	r26, Y
    18a2:	c9 55       	subi	r28, 0x59	; 89
    18a4:	d2 40       	sbci	r29, 0x02	; 2
    18a6:	a1 30       	cpi	r26, 0x01	; 1
    18a8:	09 f0       	breq	.+2      	; 0x18ac <main+0xb50>
    18aa:	5f c0       	rjmp	.+190    	; 0x196a <main+0xc0e>
    18ac:	06 c0       	rjmp	.+12     	; 0x18ba <main+0xb5e>
			
			
			// change display content if button 2 is short pressed or every 1 second pressed
			if (switch2_ctr == 10)
			{
				switch2_ctr = 1;
    18ae:	b1 e0       	ldi	r27, 0x01	; 1
    18b0:	c7 5a       	subi	r28, 0xA7	; 167
    18b2:	dd 4f       	sbci	r29, 0xFD	; 253
    18b4:	b8 83       	st	Y, r27
    18b6:	c9 55       	subi	r28, 0x59	; 89
    18b8:	d2 40       	sbci	r29, 0x02	; 2
			}
			
			if (switch2_ctr == 1)
			{
				screenIndex ++;
    18ba:	c8 5a       	subi	r28, 0xA8	; 168
    18bc:	dd 4f       	sbci	r29, 0xFD	; 253
    18be:	e8 81       	ld	r30, Y
    18c0:	c8 55       	subi	r28, 0x58	; 88
    18c2:	d2 40       	sbci	r29, 0x02	; 2
    18c4:	ef 5f       	subi	r30, 0xFF	; 255
    18c6:	c8 5a       	subi	r28, 0xA8	; 168
    18c8:	dd 4f       	sbci	r29, 0xFD	; 253
    18ca:	e8 83       	st	Y, r30
    18cc:	c8 55       	subi	r28, 0x58	; 88
    18ce:	d2 40       	sbci	r29, 0x02	; 2
				if (alphaDisplay.screen[screenIndex] == 0)		// screen is not available
    18d0:	e7 e2       	ldi	r30, 0x27	; 39
    18d2:	f1 e0       	ldi	r31, 0x01	; 1
    18d4:	ec 0f       	add	r30, r28
    18d6:	fd 1f       	adc	r31, r29
    18d8:	c8 5a       	subi	r28, 0xA8	; 168
    18da:	dd 4f       	sbci	r29, 0xFD	; 253
    18dc:	28 81       	ld	r18, Y
    18de:	c8 55       	subi	r28, 0x58	; 88
    18e0:	d2 40       	sbci	r29, 0x02	; 2
    18e2:	e2 0f       	add	r30, r18
    18e4:	f1 1d       	adc	r31, r1
    18e6:	82 81       	ldd	r24, Z+2	; 0x02
    18e8:	81 11       	cpse	r24, r1
    18ea:	05 c0       	rjmp	.+10     	; 0x18f6 <main+0xb9a>
				{
					screenIndex = 0;		// go to first screen
    18ec:	c8 5a       	subi	r28, 0xA8	; 168
    18ee:	dd 4f       	sbci	r29, 0xFD	; 253
    18f0:	18 82       	st	Y, r1
    18f2:	c8 55       	subi	r28, 0x58	; 88
    18f4:	d2 40       	sbci	r29, 0x02	; 2
				}
				screenCountdown = alphaDisplay.screen[screenIndex];
    18f6:	e7 e2       	ldi	r30, 0x27	; 39
    18f8:	f1 e0       	ldi	r31, 0x01	; 1
    18fa:	ec 0f       	add	r30, r28
    18fc:	fd 1f       	adc	r31, r29
    18fe:	c8 5a       	subi	r28, 0xA8	; 168
    1900:	dd 4f       	sbci	r29, 0xFD	; 253
    1902:	38 81       	ld	r19, Y
    1904:	c8 55       	subi	r28, 0x58	; 88
    1906:	d2 40       	sbci	r29, 0x02	; 2
    1908:	e3 0f       	add	r30, r19
    190a:	f1 1d       	adc	r31, r1
    190c:	42 81       	ldd	r20, Z+2	; 0x02
    190e:	c9 5a       	subi	r28, 0xA9	; 169
    1910:	dd 4f       	sbci	r29, 0xFD	; 253
    1912:	48 83       	st	Y, r20
    1914:	c7 55       	subi	r28, 0x57	; 87
    1916:	d2 40       	sbci	r29, 0x02	; 2
				// if no alert is active, show normal display content
				if (alert_status.fanblock == 0 && alert_status.lowWaterFlow == 0 && alert_status.overtemp == 0)
    1918:	71 10       	cpse	r7, r1
    191a:	27 c0       	rjmp	.+78     	; 0x196a <main+0xc0e>
    191c:	a1 14       	cp	r10, r1
    191e:	b1 04       	cpc	r11, r1
    1920:	21 f5       	brne	.+72     	; 0x196a <main+0xc0e>
    1922:	21 10       	cpse	r2, r1
    1924:	22 c0       	rjmp	.+68     	; 0x196a <main+0xc0e>
				{
					alpha_updateScreen(screenIndex,alphaDisplay.content,temperature,time,pcStatus,&literPerHour,channel_status);
    1926:	c1 2c       	mov	r12, r1
    1928:	dd 24       	eor	r13, r13
    192a:	d3 94       	inc	r13
    192c:	cc 0e       	add	r12, r28
    192e:	dd 1e       	adc	r13, r29
    1930:	0f 2e       	mov	r0, r31
    1932:	f6 e2       	ldi	r31, 0x26	; 38
    1934:	ef 2e       	mov	r14, r31
    1936:	f1 2c       	mov	r15, r1
    1938:	f0 2d       	mov	r31, r0
    193a:	ec 0e       	add	r14, r28
    193c:	fd 1e       	adc	r15, r29
    193e:	8e 01       	movw	r16, r28
    1940:	01 5e       	subi	r16, 0xE1	; 225
    1942:	1e 4f       	sbci	r17, 0xFE	; 254
    1944:	9e 01       	movw	r18, r28
    1946:	24 5e       	subi	r18, 0xE4	; 228
    1948:	3e 4f       	sbci	r19, 0xFE	; 254
    194a:	ae 01       	movw	r20, r28
    194c:	4a 5f       	subi	r20, 0xFA	; 250
    194e:	5f 4f       	sbci	r21, 0xFF	; 255
    1950:	c1 58       	subi	r28, 0x81	; 129
    1952:	dd 4f       	sbci	r29, 0xFD	; 253
    1954:	68 81       	ld	r22, Y
    1956:	79 81       	ldd	r23, Y+1	; 0x01
    1958:	cf 57       	subi	r28, 0x7F	; 127
    195a:	d2 40       	sbci	r29, 0x02	; 2
    195c:	c8 5a       	subi	r28, 0xA8	; 168
    195e:	dd 4f       	sbci	r29, 0xFD	; 253
    1960:	88 81       	ld	r24, Y
    1962:	c8 55       	subi	r28, 0x58	; 88
    1964:	d2 40       	sbci	r29, 0x02	; 2
    1966:	0e 94 38 03 	call	0x670	; 0x670 <alpha_updateScreen>
			
			
			
			// send some actual information to the PC
			// every 100 ms an other of these messages 
			messageCtr++;
    196a:	cd 5a       	subi	r28, 0xAD	; 173
    196c:	dd 4f       	sbci	r29, 0xFD	; 253
    196e:	88 81       	ld	r24, Y
    1970:	c3 55       	subi	r28, 0x53	; 83
    1972:	d2 40       	sbci	r29, 0x02	; 2
    1974:	8f 5f       	subi	r24, 0xFF	; 255
    1976:	cd 5a       	subi	r28, 0xAD	; 173
    1978:	dd 4f       	sbci	r29, 0xFD	; 253
    197a:	88 83       	st	Y, r24
    197c:	c3 55       	subi	r28, 0x53	; 83
    197e:	d2 40       	sbci	r29, 0x02	; 2
			aDataSet.dA = SERIALPORT_DATA;
    1980:	19 82       	std	Y+1, r1	; 0x01
			switch (messageCtr)
    1982:	83 30       	cpi	r24, 0x03	; 3
    1984:	f1 f1       	breq	.+124    	; 0x1a02 <main+0xca6>
    1986:	30 f4       	brcc	.+12     	; 0x1994 <main+0xc38>
    1988:	81 30       	cpi	r24, 0x01	; 1
    198a:	79 f0       	breq	.+30     	; 0x19aa <main+0xc4e>
    198c:	82 30       	cpi	r24, 0x02	; 2
    198e:	09 f0       	breq	.+2      	; 0x1992 <main+0xc36>
    1990:	79 c0       	rjmp	.+242    	; 0x1a84 <main+0xd28>
    1992:	1c c0       	rjmp	.+56     	; 0x19cc <main+0xc70>
    1994:	cd 5a       	subi	r28, 0xAD	; 173
    1996:	dd 4f       	sbci	r29, 0xFD	; 253
    1998:	98 81       	ld	r25, Y
    199a:	c3 55       	subi	r28, 0x53	; 83
    199c:	d2 40       	sbci	r29, 0x02	; 2
    199e:	94 30       	cpi	r25, 0x04	; 4
    19a0:	e9 f1       	breq	.+122    	; 0x1a1c <main+0xcc0>
    19a2:	95 30       	cpi	r25, 0x05	; 5
    19a4:	09 f0       	breq	.+2      	; 0x19a8 <main+0xc4c>
    19a6:	6e c0       	rjmp	.+220    	; 0x1a84 <main+0xd28>
    19a8:	4f c0       	rjmp	.+158    	; 0x1a48 <main+0xcec>
			{
				case 1:		// temperatures
					aDataSet.id = 30;					
    19aa:	8e e1       	ldi	r24, 0x1E	; 30
    19ac:	8a 83       	std	Y+2, r24	; 0x02
					for (i=0;i<24;i++)
    19ae:	10 e0       	ldi	r17, 0x00	; 0
					{
						aDataSet.index = i + 1;
    19b0:	1f 5f       	subi	r17, 0xFF	; 255
    19b2:	1b 83       	std	Y+3, r17	; 0x03
						aDataSet.data = temperature[i];
    19b4:	d4 01       	movw	r26, r8
    19b6:	8d 91       	ld	r24, X+
    19b8:	4d 01       	movw	r8, r26
    19ba:	8c 83       	std	Y+4, r24	; 0x04
    19bc:	1d 82       	std	Y+5, r1	; 0x05
						serialport_writeCarriage(&aDataSet);
    19be:	ce 01       	movw	r24, r28
    19c0:	01 96       	adiw	r24, 0x01	; 1
    19c2:	0e 94 aa 19 	call	0x3354	; 0x3354 <serialport_writeCarriage>
			aDataSet.dA = SERIALPORT_DATA;
			switch (messageCtr)
			{
				case 1:		// temperatures
					aDataSet.id = 30;					
					for (i=0;i<24;i++)
    19c6:	18 31       	cpi	r17, 0x18	; 24
    19c8:	99 f7       	brne	.-26     	; 0x19b0 <main+0xc54>
    19ca:	5c c0       	rjmp	.+184    	; 0x1a84 <main+0xd28>
						serialport_writeCarriage(&aDataSet);
					}
					break;
			
				case 2:		// alerts
					aDataSet.id = 50;
    19cc:	82 e3       	ldi	r24, 0x32	; 50
    19ce:	8a 83       	std	Y+2, r24	; 0x02
					aDataSet.index = 1;
    19d0:	81 e0       	ldi	r24, 0x01	; 1
    19d2:	8b 83       	std	Y+3, r24	; 0x03
					aDataSet.data = alert_status.overtemp;
    19d4:	2c 82       	std	Y+4, r2	; 0x04
    19d6:	1d 82       	std	Y+5, r1	; 0x05
					serialport_writeCarriage(&aDataSet);
    19d8:	ce 01       	movw	r24, r28
    19da:	01 96       	adiw	r24, 0x01	; 1
    19dc:	0e 94 aa 19 	call	0x3354	; 0x3354 <serialport_writeCarriage>
					aDataSet.index = 2;
    19e0:	82 e0       	ldi	r24, 0x02	; 2
    19e2:	8b 83       	std	Y+3, r24	; 0x03
					aDataSet.data = alert_status.fanblock;
    19e4:	7c 82       	std	Y+4, r7	; 0x04
    19e6:	1d 82       	std	Y+5, r1	; 0x05
					serialport_writeCarriage(&aDataSet);
    19e8:	ce 01       	movw	r24, r28
    19ea:	01 96       	adiw	r24, 0x01	; 1
    19ec:	0e 94 aa 19 	call	0x3354	; 0x3354 <serialport_writeCarriage>
					aDataSet.index = 3;
    19f0:	83 e0       	ldi	r24, 0x03	; 3
    19f2:	8b 83       	std	Y+3, r24	; 0x03
					aDataSet.data = alert_status.lowWaterFlow;
    19f4:	ac 82       	std	Y+4, r10	; 0x04
    19f6:	bd 82       	std	Y+5, r11	; 0x05
					serialport_writeCarriage(&aDataSet);
    19f8:	ce 01       	movw	r24, r28
    19fa:	01 96       	adiw	r24, 0x01	; 1
    19fc:	0e 94 aa 19 	call	0x3354	; 0x3354 <serialport_writeCarriage>
					break;
    1a00:	41 c0       	rjmp	.+130    	; 0x1a84 <main+0xd28>
			
				case 3:		// water flow
					aDataSet.id = 60;
    1a02:	8c e3       	ldi	r24, 0x3C	; 60
    1a04:	8a 83       	std	Y+2, r24	; 0x02
					aDataSet.index = 1;
    1a06:	81 e0       	ldi	r24, 0x01	; 1
    1a08:	8b 83       	std	Y+3, r24	; 0x03
					aDataSet.data = literPerHour;
    1a0a:	8e a1       	ldd	r24, Y+38	; 0x26
    1a0c:	9f a1       	ldd	r25, Y+39	; 0x27
    1a0e:	8c 83       	std	Y+4, r24	; 0x04
    1a10:	9d 83       	std	Y+5, r25	; 0x05
					serialport_writeCarriage(&aDataSet);
    1a12:	ce 01       	movw	r24, r28
    1a14:	01 96       	adiw	r24, 0x01	; 1
    1a16:	0e 94 aa 19 	call	0x3354	; 0x3354 <serialport_writeCarriage>
					break;
    1a1a:	34 c0       	rjmp	.+104    	; 0x1a84 <main+0xd28>
			
				case 4:		// RPM of channels
					aDataSet.id = 61;
    1a1c:	8d e3       	ldi	r24, 0x3D	; 61
    1a1e:	8a 83       	std	Y+2, r24	; 0x02
    1a20:	8e 01       	movw	r16, r28
    1a22:	13 95       	inc	r17
					for (i= 0;i<3;i++)
    1a24:	f1 2c       	mov	r15, r1
					{
						aDataSet.index = i + 1;
    1a26:	f3 94       	inc	r15
    1a28:	fb 82       	std	Y+3, r15	; 0x03
						aDataSet.data = channel_status[i].rpm;
    1a2a:	f8 01       	movw	r30, r16
    1a2c:	80 81       	ld	r24, Z
    1a2e:	91 81       	ldd	r25, Z+1	; 0x01
    1a30:	8c 83       	std	Y+4, r24	; 0x04
    1a32:	9d 83       	std	Y+5, r25	; 0x05
						serialport_writeCarriage(&aDataSet);
    1a34:	ce 01       	movw	r24, r28
    1a36:	01 96       	adiw	r24, 0x01	; 1
    1a38:	0e 94 aa 19 	call	0x3354	; 0x3354 <serialport_writeCarriage>
    1a3c:	0b 5f       	subi	r16, 0xFB	; 251
    1a3e:	1f 4f       	sbci	r17, 0xFF	; 255
					serialport_writeCarriage(&aDataSet);
					break;
			
				case 4:		// RPM of channels
					aDataSet.id = 61;
					for (i= 0;i<3;i++)
    1a40:	f3 e0       	ldi	r31, 0x03	; 3
    1a42:	ff 12       	cpse	r15, r31
    1a44:	f0 cf       	rjmp	.-32     	; 0x1a26 <main+0xcca>
    1a46:	1e c0       	rjmp	.+60     	; 0x1a84 <main+0xd28>
						serialport_writeCarriage(&aDataSet);
					}
					break;
			
				case 5:		// power values
					aDataSet.id = 62;
    1a48:	8e e3       	ldi	r24, 0x3E	; 62
    1a4a:	8a 83       	std	Y+2, r24	; 0x02
					aDataSet.dA = SERIALPORT_DATA;
					for (i= 0;i<NUMBEROFCHANNELS;i++)
    1a4c:	10 e0       	ldi	r17, 0x00	; 0
					{
						aDataSet.index = i + 1;
						aDataSet.data = channel_status[i].power;
						serialport_writeCarriage(&aDataSet);
    1a4e:	f1 2e       	mov	r15, r17
    1a50:	c4 59       	subi	r28, 0x94	; 148
    1a52:	dd 4f       	sbci	r29, 0xFD	; 253
    1a54:	08 81       	ld	r16, Y
    1a56:	19 81       	ldd	r17, Y+1	; 0x01
    1a58:	cc 56       	subi	r28, 0x6C	; 108
    1a5a:	d2 40       	sbci	r29, 0x02	; 2
				case 5:		// power values
					aDataSet.id = 62;
					aDataSet.dA = SERIALPORT_DATA;
					for (i= 0;i<NUMBEROFCHANNELS;i++)
					{
						aDataSet.index = i + 1;
    1a5c:	f3 94       	inc	r15
    1a5e:	fb 82       	std	Y+3, r15	; 0x03
						aDataSet.data = channel_status[i].power;
    1a60:	d8 01       	movw	r26, r16
    1a62:	8c 91       	ld	r24, X
    1a64:	8c 83       	std	Y+4, r24	; 0x04
    1a66:	1d 82       	std	Y+5, r1	; 0x05
						serialport_writeCarriage(&aDataSet);
    1a68:	ce 01       	movw	r24, r28
    1a6a:	01 96       	adiw	r24, 0x01	; 1
    1a6c:	0e 94 aa 19 	call	0x3354	; 0x3354 <serialport_writeCarriage>
    1a70:	0b 5f       	subi	r16, 0xFB	; 251
    1a72:	1f 4f       	sbci	r17, 0xFF	; 255
					break;
			
				case 5:		// power values
					aDataSet.id = 62;
					aDataSet.dA = SERIALPORT_DATA;
					for (i= 0;i<NUMBEROFCHANNELS;i++)
    1a74:	b4 e0       	ldi	r27, 0x04	; 4
    1a76:	fb 12       	cpse	r15, r27
    1a78:	f1 cf       	rjmp	.-30     	; 0x1a5c <main+0xd00>
					{
						aDataSet.index = i + 1;
						aDataSet.data = channel_status[i].power;
						serialport_writeCarriage(&aDataSet);
					}
					messageCtr = 0;
    1a7a:	cd 5a       	subi	r28, 0xAD	; 173
    1a7c:	dd 4f       	sbci	r29, 0xFD	; 253
    1a7e:	18 82       	st	Y, r1
    1a80:	c3 55       	subi	r28, 0x53	; 83
    1a82:	d2 40       	sbci	r29, 0x02	; 2
			}				
		}			
		
		
		// check for received carriages
		if (serialport_getLastCarriage(&aDataSet) == 0)								// new carriage received
    1a84:	ce 01       	movw	r24, r28
    1a86:	01 96       	adiw	r24, 0x01	; 1
    1a88:	0e 94 25 18 	call	0x304a	; 0x304a <serialport_getLastCarriage>
    1a8c:	81 11       	cpse	r24, r1
    1a8e:	50 cb       	rjmp	.-2400   	; 0x1130 <main+0x3d4>
		{
						
			if (aDataSet.dA == SERIALPORT_DATA)			// new data
    1a90:	89 81       	ldd	r24, Y+1	; 0x01
    1a92:	81 11       	cpse	r24, r1
    1a94:	1b c2       	rjmp	.+1078   	; 0x1ecc <main+0x1170>
			{
				switch(aDataSet.id)
    1a96:	8a 81       	ldd	r24, Y+2	; 0x02
    1a98:	90 e0       	ldi	r25, 0x00	; 0
    1a9a:	fc 01       	movw	r30, r24
    1a9c:	31 97       	sbiw	r30, 0x01	; 1
    1a9e:	e1 35       	cpi	r30, 0x51	; 81
    1aa0:	f1 05       	cpc	r31, r1
    1aa2:	08 f0       	brcs	.+2      	; 0x1aa6 <main+0xd4a>
    1aa4:	13 c2       	rjmp	.+1062   	; 0x1ecc <main+0x1170>
    1aa6:	e4 54       	subi	r30, 0x44	; 68
    1aa8:	ff 4f       	sbci	r31, 0xFF	; 255
    1aaa:	0c 94 ca 1f 	jmp	0x3f94	; 0x3f94 <__tablejump2__>
				{
					case 01:							// reset
						if (aDataSet.index == 170 && aDataSet.data == 85)
    1aae:	8b 81       	ldd	r24, Y+3	; 0x03
    1ab0:	8a 3a       	cpi	r24, 0xAA	; 170
    1ab2:	09 f0       	breq	.+2      	; 0x1ab6 <main+0xd5a>
    1ab4:	3d cb       	rjmp	.-2438   	; 0x1130 <main+0x3d4>
    1ab6:	8c 81       	ldd	r24, Y+4	; 0x04
    1ab8:	9d 81       	ldd	r25, Y+5	; 0x05
    1aba:	85 35       	cpi	r24, 0x55	; 85
    1abc:	91 05       	cpc	r25, r1
    1abe:	09 f0       	breq	.+2      	; 0x1ac2 <main+0xd66>
    1ac0:	37 cb       	rjmp	.-2450   	; 0x1130 <main+0x3d4>
						{
							cli();						// disable interrupts
    1ac2:	f8 94       	cli
							CPU_CCP = 0xD8;				// disable write protection
    1ac4:	88 ed       	ldi	r24, 0xD8	; 216
    1ac6:	84 bf       	out	0x34, r24	; 52
							RST_CTRL = 1;				// do a software reset
    1ac8:	81 e0       	ldi	r24, 0x01	; 1
    1aca:	80 93 79 00 	sts	0x0079, r24
	#else
		//round up by default
		__ticks_dc = (uint32_t)(ceil(fabs(__tmp)));
	#endif

	__builtin_avr_delay_cycles(__ticks_dc);
    1ace:	ef e3       	ldi	r30, 0x3F	; 63
    1ad0:	ff e1       	ldi	r31, 0x1F	; 31
    1ad2:	31 97       	sbiw	r30, 0x01	; 1
    1ad4:	f1 f7       	brne	.-4      	; 0x1ad2 <main+0xd76>
    1ad6:	00 c0       	rjmp	.+0      	; 0x1ad8 <main+0xd7c>
    1ad8:	00 00       	nop
    1ada:	f8 c1       	rjmp	.+1008   	; 0x1ecc <main+0x1170>
							_delay_ms(1);				// wait until reset occurs
						}						
						break;
						
					case 30:							// temperatures from AIDA or other PC software
						temperature[aDataSet.index-1] = aDataSet.data;
    1adc:	8b 81       	ldd	r24, Y+3	; 0x03
    1ade:	fe 01       	movw	r30, r28
    1ae0:	e8 0f       	add	r30, r24
    1ae2:	f1 1d       	adc	r31, r1
    1ae4:	8c 81       	ldd	r24, Y+4	; 0x04
    1ae6:	85 83       	std	Z+5, r24	; 0x05
						spare_temperatureTimer = 0;
    1ae8:	cc 5a       	subi	r28, 0xAC	; 172
    1aea:	dd 4f       	sbci	r29, 0xFD	; 253
    1aec:	18 82       	st	Y, r1
    1aee:	c4 55       	subi	r28, 0x54	; 84
    1af0:	d2 40       	sbci	r29, 0x02	; 2
						break;
    1af2:	ec c1       	rjmp	.+984    	; 0x1ecc <main+0x1170>
					
					case 11:							// minimum temperatures channel 0
						channel_data[0].minTemp[aDataSet.index-1] = aDataSet.data;
    1af4:	8b 81       	ldd	r24, Y+3	; 0x03
    1af6:	90 e0       	ldi	r25, 0x00	; 0
    1af8:	01 97       	sbiw	r24, 0x01	; 1
    1afa:	6c 81       	ldd	r22, Y+4	; 0x04
    1afc:	e8 e2       	ldi	r30, 0x28	; 40
    1afe:	f0 e0       	ldi	r31, 0x00	; 0
    1b00:	ec 0f       	add	r30, r28
    1b02:	fd 1f       	adc	r31, r29
    1b04:	e8 0f       	add	r30, r24
    1b06:	f9 1f       	adc	r31, r25
    1b08:	60 83       	st	Z, r22
						eeprom_update_byte(&eeprom_channel_data[0].minTemp[aDataSet.index-1], channel_data[0].minTemp[aDataSet.index-1]);
    1b0a:	8e 5c       	subi	r24, 0xCE	; 206
    1b0c:	9e 4f       	sbci	r25, 0xFE	; 254
    1b0e:	0e 94 22 20 	call	0x4044	; 0x4044 <__eeupd_byte_x32a4>
						break;
    1b12:	dc c1       	rjmp	.+952    	; 0x1ecc <main+0x1170>
					
					case 21:							// maximum temperatures channel 0
						channel_data[0].maxTemp[aDataSet.index-1] = aDataSet.data;
    1b14:	8b 81       	ldd	r24, Y+3	; 0x03
    1b16:	90 e0       	ldi	r25, 0x00	; 0
    1b18:	6c 81       	ldd	r22, Y+4	; 0x04
    1b1a:	fe 01       	movw	r30, r28
    1b1c:	e8 0f       	add	r30, r24
    1b1e:	f9 1f       	adc	r31, r25
    1b20:	67 af       	std	Z+63, r22	; 0x3f
						eeprom_update_byte(&eeprom_channel_data[0].maxTemp[aDataSet.index-1], channel_data[0].maxTemp[aDataSet.index-1]);
    1b22:	87 5b       	subi	r24, 0xB7	; 183
    1b24:	9e 4f       	sbci	r25, 0xFE	; 254
    1b26:	0e 94 22 20 	call	0x4044	; 0x4044 <__eeupd_byte_x32a4>
						break;
    1b2a:	d0 c1       	rjmp	.+928    	; 0x1ecc <main+0x1170>
					
					case 12:							// minimum temperatures channel 1
						channel_data[1].minTemp[aDataSet.index-1] = aDataSet.data;
    1b2c:	8b 81       	ldd	r24, Y+3	; 0x03
    1b2e:	90 e0       	ldi	r25, 0x00	; 0
    1b30:	6c 81       	ldd	r22, Y+4	; 0x04
    1b32:	fe 01       	movw	r30, r28
    1b34:	e8 0f       	add	r30, r24
    1b36:	f9 1f       	adc	r31, r25
    1b38:	e3 5a       	subi	r30, 0xA3	; 163
    1b3a:	ff 4f       	sbci	r31, 0xFF	; 255
    1b3c:	60 83       	st	Z, r22
						eeprom_update_byte(&eeprom_channel_data[1].minTemp[aDataSet.index-1], channel_data[1].minTemp[aDataSet.index-1]);
    1b3e:	89 59       	subi	r24, 0x99	; 153
    1b40:	9e 4f       	sbci	r25, 0xFE	; 254
    1b42:	0e 94 22 20 	call	0x4044	; 0x4044 <__eeupd_byte_x32a4>
						break;
    1b46:	c2 c1       	rjmp	.+900    	; 0x1ecc <main+0x1170>
					
					case 22:							// maximum temperatures channel 1
						channel_data[1].maxTemp[aDataSet.index-1] = aDataSet.data;
    1b48:	8b 81       	ldd	r24, Y+3	; 0x03
    1b4a:	90 e0       	ldi	r25, 0x00	; 0
    1b4c:	6c 81       	ldd	r22, Y+4	; 0x04
    1b4e:	fe 01       	movw	r30, r28
    1b50:	e8 0f       	add	r30, r24
    1b52:	f9 1f       	adc	r31, r25
    1b54:	eb 58       	subi	r30, 0x8B	; 139
    1b56:	ff 4f       	sbci	r31, 0xFF	; 255
    1b58:	60 83       	st	Z, r22
						eeprom_update_byte(&eeprom_channel_data[1].maxTemp[aDataSet.index-1], channel_data[1].maxTemp[aDataSet.index-1]);
    1b5a:	81 58       	subi	r24, 0x81	; 129
    1b5c:	9e 4f       	sbci	r25, 0xFE	; 254
    1b5e:	0e 94 22 20 	call	0x4044	; 0x4044 <__eeupd_byte_x32a4>
						break;
    1b62:	b4 c1       	rjmp	.+872    	; 0x1ecc <main+0x1170>
						
					case 13:							// minimum temperatures channel 2
						channel_data[2].minTemp[aDataSet.index-1] = aDataSet.data;
    1b64:	8b 81       	ldd	r24, Y+3	; 0x03
    1b66:	90 e0       	ldi	r25, 0x00	; 0
    1b68:	6c 81       	ldd	r22, Y+4	; 0x04
    1b6a:	fe 01       	movw	r30, r28
    1b6c:	e8 0f       	add	r30, r24
    1b6e:	f9 1f       	adc	r31, r25
    1b70:	ed 56       	subi	r30, 0x6D	; 109
    1b72:	ff 4f       	sbci	r31, 0xFF	; 255
    1b74:	60 83       	st	Z, r22
						eeprom_update_byte(&eeprom_channel_data[2].minTemp[aDataSet.index-1], channel_data[2].minTemp[aDataSet.index-1]);
    1b76:	83 56       	subi	r24, 0x63	; 99
    1b78:	9e 4f       	sbci	r25, 0xFE	; 254
    1b7a:	0e 94 22 20 	call	0x4044	; 0x4044 <__eeupd_byte_x32a4>
						break;
    1b7e:	a6 c1       	rjmp	.+844    	; 0x1ecc <main+0x1170>
					
					case 23:							// maximum temperatures channel 2
						channel_data[2].maxTemp[aDataSet.index-1] = aDataSet.data;
    1b80:	8b 81       	ldd	r24, Y+3	; 0x03
    1b82:	90 e0       	ldi	r25, 0x00	; 0
    1b84:	6c 81       	ldd	r22, Y+4	; 0x04
    1b86:	fe 01       	movw	r30, r28
    1b88:	e8 0f       	add	r30, r24
    1b8a:	f9 1f       	adc	r31, r25
    1b8c:	e5 55       	subi	r30, 0x55	; 85
    1b8e:	ff 4f       	sbci	r31, 0xFF	; 255
    1b90:	60 83       	st	Z, r22
						eeprom_update_byte(&eeprom_channel_data[2].maxTemp[aDataSet.index-1], channel_data[2].maxTemp[aDataSet.index-1]);
    1b92:	8b 54       	subi	r24, 0x4B	; 75
    1b94:	9e 4f       	sbci	r25, 0xFE	; 254
    1b96:	0e 94 22 20 	call	0x4044	; 0x4044 <__eeupd_byte_x32a4>
						break;	
    1b9a:	98 c1       	rjmp	.+816    	; 0x1ecc <main+0x1170>
						
					case 14:							// minimum temperatures channel 3
						channel_data[3].minTemp[aDataSet.index-1] = aDataSet.data;
    1b9c:	8b 81       	ldd	r24, Y+3	; 0x03
    1b9e:	90 e0       	ldi	r25, 0x00	; 0
    1ba0:	6c 81       	ldd	r22, Y+4	; 0x04
    1ba2:	fe 01       	movw	r30, r28
    1ba4:	e8 0f       	add	r30, r24
    1ba6:	f9 1f       	adc	r31, r25
    1ba8:	e7 53       	subi	r30, 0x37	; 55
    1baa:	ff 4f       	sbci	r31, 0xFF	; 255
    1bac:	60 83       	st	Z, r22
						eeprom_update_byte(&eeprom_channel_data[3].minTemp[aDataSet.index-1], channel_data[3].minTemp[aDataSet.index-1]);
    1bae:	8d 52       	subi	r24, 0x2D	; 45
    1bb0:	9e 4f       	sbci	r25, 0xFE	; 254
    1bb2:	0e 94 22 20 	call	0x4044	; 0x4044 <__eeupd_byte_x32a4>
						break;
    1bb6:	8a c1       	rjmp	.+788    	; 0x1ecc <main+0x1170>
					
					case 24:							// maximum temperatures channel 3
						channel_data[3].maxTemp[aDataSet.index-1] = aDataSet.data;
    1bb8:	8b 81       	ldd	r24, Y+3	; 0x03
    1bba:	90 e0       	ldi	r25, 0x00	; 0
    1bbc:	6c 81       	ldd	r22, Y+4	; 0x04
    1bbe:	fe 01       	movw	r30, r28
    1bc0:	e8 0f       	add	r30, r24
    1bc2:	f9 1f       	adc	r31, r25
    1bc4:	ef 51       	subi	r30, 0x1F	; 31
    1bc6:	ff 4f       	sbci	r31, 0xFF	; 255
    1bc8:	60 83       	st	Z, r22
						eeprom_update_byte(&eeprom_channel_data[3].maxTemp[aDataSet.index-1], channel_data[3].maxTemp[aDataSet.index-1]);
    1bca:	85 51       	subi	r24, 0x15	; 21
    1bcc:	9e 4f       	sbci	r25, 0xFE	; 254
    1bce:	0e 94 22 20 	call	0x4044	; 0x4044 <__eeupd_byte_x32a4>
						break;
    1bd2:	7c c1       	rjmp	.+760    	; 0x1ecc <main+0x1170>
						
					case 31:							// spare temperatures
						spare_temperature[aDataSet.index-17] = aDataSet.data;
    1bd4:	8b 81       	ldd	r24, Y+3	; 0x03
    1bd6:	90 e0       	ldi	r25, 0x00	; 0
    1bd8:	41 97       	sbiw	r24, 0x11	; 17
    1bda:	6c 81       	ldd	r22, Y+4	; 0x04
    1bdc:	fe 01       	movw	r30, r28
    1bde:	e8 0f       	add	r30, r24
    1be0:	f9 1f       	adc	r31, r25
    1be2:	66 8f       	std	Z+30, r22	; 0x1e
						eeprom_update_byte(&eeprom_spare_temperature[aDataSet.index-17], spare_temperature[aDataSet.index-17]);
    1be4:	86 5d       	subi	r24, 0xD6	; 214
    1be6:	9e 4f       	sbci	r25, 0xFE	; 254
    1be8:	0e 94 22 20 	call	0x4044	; 0x4044 <__eeupd_byte_x32a4>
						break;	
    1bec:	6f c1       	rjmp	.+734    	; 0x1ecc <main+0x1170>
						
					case 40:							// time
						time[aDataSet.index-1] = aDataSet.data;
    1bee:	8b 81       	ldd	r24, Y+3	; 0x03
    1bf0:	ec e1       	ldi	r30, 0x1C	; 28
    1bf2:	f1 e0       	ldi	r31, 0x01	; 1
    1bf4:	ec 0f       	add	r30, r28
    1bf6:	fd 1f       	adc	r31, r29
    1bf8:	e8 0f       	add	r30, r24
    1bfa:	f1 1d       	adc	r31, r1
    1bfc:	31 97       	sbiw	r30, 0x01	; 1
    1bfe:	8c 81       	ldd	r24, Y+4	; 0x04
    1c00:	80 83       	st	Z, r24
						break;
    1c02:	64 c1       	rjmp	.+712    	; 0x1ecc <main+0x1170>
					
					case 41:							// PC information
						pcStatus[aDataSet.index-1] = aDataSet.data;
    1c04:	eb 81       	ldd	r30, Y+3	; 0x03
    1c06:	f0 e0       	ldi	r31, 0x00	; 0
    1c08:	31 97       	sbiw	r30, 0x01	; 1
    1c0a:	ee 0f       	add	r30, r30
    1c0c:	ff 1f       	adc	r31, r31
    1c0e:	2f e1       	ldi	r18, 0x1F	; 31
    1c10:	31 e0       	ldi	r19, 0x01	; 1
    1c12:	2c 0f       	add	r18, r28
    1c14:	3d 1f       	adc	r19, r29
    1c16:	e2 0f       	add	r30, r18
    1c18:	f3 1f       	adc	r31, r19
    1c1a:	8c 81       	ldd	r24, Y+4	; 0x04
    1c1c:	9d 81       	ldd	r25, Y+5	; 0x05
    1c1e:	80 83       	st	Z, r24
    1c20:	91 83       	std	Z+1, r25	; 0x01
						break;
    1c22:	54 c1       	rjmp	.+680    	; 0x1ecc <main+0x1170>
					
					case 51:							// alert enable
						if (aDataSet.index == 1)
    1c24:	8b 81       	ldd	r24, Y+3	; 0x03
    1c26:	81 30       	cpi	r24, 0x01	; 1
    1c28:	59 f4       	brne	.+22     	; 0x1c40 <main+0xee4>
						{
							alert_data.overtempEnable = aDataSet.data;
    1c2a:	6c 81       	ldd	r22, Y+4	; 0x04
    1c2c:	c8 5e       	subi	r28, 0xE8	; 232
    1c2e:	de 4f       	sbci	r29, 0xFE	; 254
    1c30:	68 83       	st	Y, r22
    1c32:	c8 51       	subi	r28, 0x18	; 24
    1c34:	d1 40       	sbci	r29, 0x01	; 1
							eeprom_update_byte(&eeprom_alert_data.overtempEnable, alert_data.overtempEnable);
    1c36:	82 e2       	ldi	r24, 0x22	; 34
    1c38:	91 e0       	ldi	r25, 0x01	; 1
    1c3a:	0e 94 22 20 	call	0x4044	; 0x4044 <__eeupd_byte_x32a4>
    1c3e:	46 c1       	rjmp	.+652    	; 0x1ecc <main+0x1170>
						} 
						else if (aDataSet.index == 2)
    1c40:	82 30       	cpi	r24, 0x02	; 2
    1c42:	09 f0       	breq	.+2      	; 0x1c46 <main+0xeea>
    1c44:	75 ca       	rjmp	.-2838   	; 0x1130 <main+0x3d4>
						{
							alert_data.fanblockEnable = aDataSet.data;
    1c46:	6c 81       	ldd	r22, Y+4	; 0x04
    1c48:	c7 5e       	subi	r28, 0xE7	; 231
    1c4a:	de 4f       	sbci	r29, 0xFE	; 254
    1c4c:	68 83       	st	Y, r22
    1c4e:	c9 51       	subi	r28, 0x19	; 25
    1c50:	d1 40       	sbci	r29, 0x01	; 1
							eeprom_update_byte(&eeprom_alert_data.fanblockEnable, alert_data.fanblockEnable);
    1c52:	83 e2       	ldi	r24, 0x23	; 35
    1c54:	91 e0       	ldi	r25, 0x01	; 1
    1c56:	0e 94 22 20 	call	0x4044	; 0x4044 <__eeupd_byte_x32a4>
    1c5a:	38 c1       	rjmp	.+624    	; 0x1ecc <main+0x1170>
						}
						break;
					
						
					case 70:							// Pulse per liter of flowMeter
						if (aDataSet.index == 1)
    1c5c:	8b 81       	ldd	r24, Y+3	; 0x03
    1c5e:	81 30       	cpi	r24, 0x01	; 1
    1c60:	a9 f4       	brne	.+42     	; 0x1c8c <main+0xf30>
						{
							pulsePerLiter = aDataSet.data;
    1c62:	8c 81       	ldd	r24, Y+4	; 0x04
    1c64:	9d 81       	ldd	r25, Y+5	; 0x05
    1c66:	c3 58       	subi	r28, 0x83	; 131
    1c68:	dd 4f       	sbci	r29, 0xFD	; 253
    1c6a:	88 83       	st	Y, r24
    1c6c:	99 83       	std	Y+1, r25	; 0x01
    1c6e:	cd 57       	subi	r28, 0x7D	; 125
    1c70:	d2 40       	sbci	r29, 0x02	; 2
							timer_setImpulsePerLiter(pulsePerLiter);
    1c72:	0e 94 7b 1f 	call	0x3ef6	; 0x3ef6 <timer_setImpulsePerLiter>
							eeprom_update_word(&eeprom_pulsePerLiter, pulsePerLiter);
    1c76:	c3 58       	subi	r28, 0x83	; 131
    1c78:	dd 4f       	sbci	r29, 0xFD	; 253
    1c7a:	68 81       	ld	r22, Y
    1c7c:	79 81       	ldd	r23, Y+1	; 0x01
    1c7e:	cd 57       	subi	r28, 0x7D	; 125
    1c80:	d2 40       	sbci	r29, 0x02	; 2
    1c82:	80 e2       	ldi	r24, 0x20	; 32
    1c84:	91 e0       	ldi	r25, 0x01	; 1
    1c86:	0e 94 2d 20 	call	0x405a	; 0x405a <__eeupd_word_x32a4>
    1c8a:	20 c1       	rjmp	.+576    	; 0x1ecc <main+0x1170>
						}
						else if (aDataSet.index == 2)
    1c8c:	82 30       	cpi	r24, 0x02	; 2
    1c8e:	09 f0       	breq	.+2      	; 0x1c92 <main+0xf36>
    1c90:	4f ca       	rjmp	.-2914   	; 0x1130 <main+0x3d4>
						{
							alert_data.minWaterFlow = aDataSet.data;
    1c92:	6c 81       	ldd	r22, Y+4	; 0x04
    1c94:	7d 81       	ldd	r23, Y+5	; 0x05
    1c96:	c6 5e       	subi	r28, 0xE6	; 230
    1c98:	de 4f       	sbci	r29, 0xFE	; 254
    1c9a:	68 83       	st	Y, r22
    1c9c:	79 83       	std	Y+1, r23	; 0x01
    1c9e:	ca 51       	subi	r28, 0x1A	; 26
    1ca0:	d1 40       	sbci	r29, 0x01	; 1
							eeprom_update_word(&eeprom_alert_data.minWaterFlow, alert_data.minWaterFlow);
    1ca2:	84 e2       	ldi	r24, 0x24	; 36
    1ca4:	91 e0       	ldi	r25, 0x01	; 1
    1ca6:	0e 94 2d 20 	call	0x405a	; 0x405a <__eeupd_word_x32a4>
    1caa:	10 c1       	rjmp	.+544    	; 0x1ecc <main+0x1170>
						}
						break;
					
					case 71:							// manual power
						channel_data[aDataSet.index-1].manualPower = aDataSet.data;
    1cac:	2b 81       	ldd	r18, Y+3	; 0x03
    1cae:	30 e0       	ldi	r19, 0x00	; 0
    1cb0:	21 50       	subi	r18, 0x01	; 1
    1cb2:	31 09       	sbc	r19, r1
    1cb4:	6c 81       	ldd	r22, Y+4	; 0x04
    1cb6:	46 e3       	ldi	r20, 0x36	; 54
    1cb8:	42 9f       	mul	r20, r18
    1cba:	c0 01       	movw	r24, r0
    1cbc:	43 9f       	mul	r20, r19
    1cbe:	90 0d       	add	r25, r0
    1cc0:	11 24       	eor	r1, r1
    1cc2:	fe 01       	movw	r30, r28
    1cc4:	e8 0f       	add	r30, r24
    1cc6:	f9 1f       	adc	r31, r25
    1cc8:	e8 5a       	subi	r30, 0xA8	; 168
    1cca:	ff 4f       	sbci	r31, 0xFF	; 255
    1ccc:	60 83       	st	Z, r22
						eeprom_update_byte(&eeprom_channel_data[aDataSet.index-1].manualPower, channel_data[aDataSet.index-1].manualPower);
    1cce:	8e 59       	subi	r24, 0x9E	; 158
    1cd0:	9e 4f       	sbci	r25, 0xFE	; 254
    1cd2:	0e 94 22 20 	call	0x4044	; 0x4044 <__eeupd_byte_x32a4>
						break;
    1cd6:	fa c0       	rjmp	.+500    	; 0x1ecc <main+0x1170>
						
					case 72:							// startup times
						if (aDataSet.data == 0)
    1cd8:	8c 81       	ldd	r24, Y+4	; 0x04
    1cda:	9d 81       	ldd	r25, Y+5	; 0x05
    1cdc:	00 97       	sbiw	r24, 0x00	; 0
    1cde:	81 f4       	brne	.+32     	; 0x1d00 <main+0xfa4>
						{
							channel_data[aDataSet.index-1].startupTime = 1;							
    1ce0:	8b 81       	ldd	r24, Y+3	; 0x03
    1ce2:	90 e0       	ldi	r25, 0x00	; 0
    1ce4:	01 97       	sbiw	r24, 0x01	; 1
    1ce6:	26 e3       	ldi	r18, 0x36	; 54
    1ce8:	28 9f       	mul	r18, r24
    1cea:	f0 01       	movw	r30, r0
    1cec:	29 9f       	mul	r18, r25
    1cee:	f0 0d       	add	r31, r0
    1cf0:	11 24       	eor	r1, r1
    1cf2:	ec 0f       	add	r30, r28
    1cf4:	fd 1f       	adc	r31, r29
    1cf6:	e6 5a       	subi	r30, 0xA6	; 166
    1cf8:	ff 4f       	sbci	r31, 0xFF	; 255
    1cfa:	81 e0       	ldi	r24, 0x01	; 1
    1cfc:	80 83       	st	Z, r24
    1cfe:	0f c0       	rjmp	.+30     	; 0x1d1e <main+0xfc2>
						} 
						else
						{
							channel_data[aDataSet.index-1].startupTime = aDataSet.data;
    1d00:	2b 81       	ldd	r18, Y+3	; 0x03
    1d02:	30 e0       	ldi	r19, 0x00	; 0
    1d04:	21 50       	subi	r18, 0x01	; 1
    1d06:	31 09       	sbc	r19, r1
    1d08:	96 e3       	ldi	r25, 0x36	; 54
    1d0a:	92 9f       	mul	r25, r18
    1d0c:	f0 01       	movw	r30, r0
    1d0e:	93 9f       	mul	r25, r19
    1d10:	f0 0d       	add	r31, r0
    1d12:	11 24       	eor	r1, r1
    1d14:	ec 0f       	add	r30, r28
    1d16:	fd 1f       	adc	r31, r29
    1d18:	e6 5a       	subi	r30, 0xA6	; 166
    1d1a:	ff 4f       	sbci	r31, 0xFF	; 255
    1d1c:	80 83       	st	Z, r24
						}
						eeprom_update_byte(&eeprom_channel_data[aDataSet.index-1].startupTime, channel_data[aDataSet.index-1].startupTime);
    1d1e:	2b 81       	ldd	r18, Y+3	; 0x03
    1d20:	30 e0       	ldi	r19, 0x00	; 0
    1d22:	21 50       	subi	r18, 0x01	; 1
    1d24:	31 09       	sbc	r19, r1
    1d26:	46 e3       	ldi	r20, 0x36	; 54
    1d28:	42 9f       	mul	r20, r18
    1d2a:	c0 01       	movw	r24, r0
    1d2c:	43 9f       	mul	r20, r19
    1d2e:	90 0d       	add	r25, r0
    1d30:	11 24       	eor	r1, r1
    1d32:	fe 01       	movw	r30, r28
    1d34:	e8 0f       	add	r30, r24
    1d36:	f9 1f       	adc	r31, r25
    1d38:	e6 5a       	subi	r30, 0xA6	; 166
    1d3a:	ff 4f       	sbci	r31, 0xFF	; 255
    1d3c:	60 81       	ld	r22, Z
    1d3e:	8c 59       	subi	r24, 0x9C	; 156
    1d40:	9e 4f       	sbci	r25, 0xFE	; 254
    1d42:	0e 94 22 20 	call	0x4044	; 0x4044 <__eeupd_byte_x32a4>
						break;
    1d46:	c2 c0       	rjmp	.+388    	; 0x1ecc <main+0x1170>
					
					case 73:							// minimum power
						channel_data[aDataSet.index-1].minimumPower = aDataSet.data;
    1d48:	2b 81       	ldd	r18, Y+3	; 0x03
    1d4a:	30 e0       	ldi	r19, 0x00	; 0
    1d4c:	21 50       	subi	r18, 0x01	; 1
    1d4e:	31 09       	sbc	r19, r1
    1d50:	6c 81       	ldd	r22, Y+4	; 0x04
    1d52:	46 e3       	ldi	r20, 0x36	; 54
    1d54:	42 9f       	mul	r20, r18
    1d56:	c0 01       	movw	r24, r0
    1d58:	43 9f       	mul	r20, r19
    1d5a:	90 0d       	add	r25, r0
    1d5c:	11 24       	eor	r1, r1
    1d5e:	fe 01       	movw	r30, r28
    1d60:	e8 0f       	add	r30, r24
    1d62:	f9 1f       	adc	r31, r25
    1d64:	e7 5a       	subi	r30, 0xA7	; 167
    1d66:	ff 4f       	sbci	r31, 0xFF	; 255
    1d68:	60 83       	st	Z, r22
						eeprom_update_byte(&eeprom_channel_data[aDataSet.index-1].minimumPower, channel_data[aDataSet.index-1].minimumPower);
    1d6a:	8d 59       	subi	r24, 0x9D	; 157
    1d6c:	9e 4f       	sbci	r25, 0xFE	; 254
    1d6e:	0e 94 22 20 	call	0x4044	; 0x4044 <__eeupd_byte_x32a4>
						break;
    1d72:	ac c0       	rjmp	.+344    	; 0x1ecc <main+0x1170>
						
					case 74:							// automatic mode
						channel_data[aDataSet.index-1].automaticMode = aDataSet.data;
    1d74:	2b 81       	ldd	r18, Y+3	; 0x03
    1d76:	30 e0       	ldi	r19, 0x00	; 0
    1d78:	21 50       	subi	r18, 0x01	; 1
    1d7a:	31 09       	sbc	r19, r1
    1d7c:	6c 81       	ldd	r22, Y+4	; 0x04
    1d7e:	46 e3       	ldi	r20, 0x36	; 54
    1d80:	42 9f       	mul	r20, r18
    1d82:	c0 01       	movw	r24, r0
    1d84:	43 9f       	mul	r20, r19
    1d86:	90 0d       	add	r25, r0
    1d88:	11 24       	eor	r1, r1
    1d8a:	fe 01       	movw	r30, r28
    1d8c:	e8 0f       	add	r30, r24
    1d8e:	f9 1f       	adc	r31, r25
    1d90:	e5 5a       	subi	r30, 0xA5	; 165
    1d92:	ff 4f       	sbci	r31, 0xFF	; 255
    1d94:	60 83       	st	Z, r22
						eeprom_update_byte(&eeprom_channel_data[aDataSet.index-1].automaticMode, channel_data[aDataSet.index-1].automaticMode);
    1d96:	8b 59       	subi	r24, 0x9B	; 155
    1d98:	9e 4f       	sbci	r25, 0xFE	; 254
    1d9a:	0e 94 22 20 	call	0x4044	; 0x4044 <__eeupd_byte_x32a4>
						break;
    1d9e:	96 c0       	rjmp	.+300    	; 0x1ecc <main+0x1170>
						
					case 75:							// stop enable
						channel_data[aDataSet.index-1].stopEnable = aDataSet.data;
    1da0:	2b 81       	ldd	r18, Y+3	; 0x03
    1da2:	30 e0       	ldi	r19, 0x00	; 0
    1da4:	21 50       	subi	r18, 0x01	; 1
    1da6:	31 09       	sbc	r19, r1
    1da8:	6c 81       	ldd	r22, Y+4	; 0x04
    1daa:	46 e3       	ldi	r20, 0x36	; 54
    1dac:	42 9f       	mul	r20, r18
    1dae:	c0 01       	movw	r24, r0
    1db0:	43 9f       	mul	r20, r19
    1db2:	90 0d       	add	r25, r0
    1db4:	11 24       	eor	r1, r1
    1db6:	fe 01       	movw	r30, r28
    1db8:	e8 0f       	add	r30, r24
    1dba:	f9 1f       	adc	r31, r25
    1dbc:	e4 5a       	subi	r30, 0xA4	; 164
    1dbe:	ff 4f       	sbci	r31, 0xFF	; 255
    1dc0:	60 83       	st	Z, r22
						eeprom_update_byte(&eeprom_channel_data[aDataSet.index-1].stopEnable, channel_data[aDataSet.index-1].stopEnable);
    1dc2:	8a 59       	subi	r24, 0x9A	; 154
    1dc4:	9e 4f       	sbci	r25, 0xFE	; 254
    1dc6:	0e 94 22 20 	call	0x4044	; 0x4044 <__eeupd_byte_x32a4>
						break;
    1dca:	80 c0       	rjmp	.+256    	; 0x1ecc <main+0x1170>
						
					case 76:							// threshold
						channel_data[aDataSet.index-1].threshold = aDataSet.data;
    1dcc:	2b 81       	ldd	r18, Y+3	; 0x03
    1dce:	30 e0       	ldi	r19, 0x00	; 0
    1dd0:	21 50       	subi	r18, 0x01	; 1
    1dd2:	31 09       	sbc	r19, r1
    1dd4:	6c 81       	ldd	r22, Y+4	; 0x04
    1dd6:	46 e3       	ldi	r20, 0x36	; 54
    1dd8:	42 9f       	mul	r20, r18
    1dda:	c0 01       	movw	r24, r0
    1ddc:	43 9f       	mul	r20, r19
    1dde:	90 0d       	add	r25, r0
    1de0:	11 24       	eor	r1, r1
    1de2:	fe 01       	movw	r30, r28
    1de4:	e8 0f       	add	r30, r24
    1de6:	f9 1f       	adc	r31, r25
    1de8:	e3 5a       	subi	r30, 0xA3	; 163
    1dea:	ff 4f       	sbci	r31, 0xFF	; 255
    1dec:	60 83       	st	Z, r22
						eeprom_update_byte(&eeprom_channel_data[aDataSet.index-1].threshold, channel_data[aDataSet.index-1].threshold);
    1dee:	89 59       	subi	r24, 0x99	; 153
    1df0:	9e 4f       	sbci	r25, 0xFE	; 254
    1df2:	0e 94 22 20 	call	0x4044	; 0x4044 <__eeupd_byte_x32a4>
						break;
    1df6:	6a c0       	rjmp	.+212    	; 0x1ecc <main+0x1170>
						
					case 77:							// backlight and contrast
						if (aDataSet.index == 1)
    1df8:	8b 81       	ldd	r24, Y+3	; 0x03
    1dfa:	81 30       	cpi	r24, 0x01	; 1
    1dfc:	99 f4       	brne	.+38     	; 0x1e24 <main+0x10c8>
						{
							alphaDisplay.backlight = aDataSet.data;
    1dfe:	6c 81       	ldd	r22, Y+4	; 0x04
    1e00:	c9 5d       	subi	r28, 0xD9	; 217
    1e02:	de 4f       	sbci	r29, 0xFE	; 254
    1e04:	68 83       	st	Y, r22
    1e06:	c7 52       	subi	r28, 0x27	; 39
    1e08:	d1 40       	sbci	r29, 0x01	; 1
							timer_setPwm(BACKLIGHT,alphaDisplay.backlight);
    1e0a:	87 e0       	ldi	r24, 0x07	; 7
    1e0c:	0e 94 f2 1e 	call	0x3de4	; 0x3de4 <timer_setPwm>
							eeprom_update_byte(&eeprom_alphaDisplay.backlight, alphaDisplay.backlight);
    1e10:	c9 5d       	subi	r28, 0xD9	; 217
    1e12:	de 4f       	sbci	r29, 0xFE	; 254
    1e14:	68 81       	ld	r22, Y
    1e16:	c7 52       	subi	r28, 0x27	; 39
    1e18:	d1 40       	sbci	r29, 0x01	; 1
    1e1a:	80 e0       	ldi	r24, 0x00	; 0
    1e1c:	90 e0       	ldi	r25, 0x00	; 0
    1e1e:	0e 94 22 20 	call	0x4044	; 0x4044 <__eeupd_byte_x32a4>
    1e22:	54 c0       	rjmp	.+168    	; 0x1ecc <main+0x1170>
						}
						else if (aDataSet.index == 2)
    1e24:	82 30       	cpi	r24, 0x02	; 2
    1e26:	09 f0       	breq	.+2      	; 0x1e2a <main+0x10ce>
    1e28:	83 c9       	rjmp	.-3322   	; 0x1130 <main+0x3d4>
						{
							alphaDisplay.contrast = aDataSet.data;
    1e2a:	8c 81       	ldd	r24, Y+4	; 0x04
    1e2c:	c8 5d       	subi	r28, 0xD8	; 216
    1e2e:	de 4f       	sbci	r29, 0xFE	; 254
    1e30:	88 83       	st	Y, r24
    1e32:	c8 52       	subi	r28, 0x28	; 40
    1e34:	d1 40       	sbci	r29, 0x01	; 1
							alpha_setContrast(alphaDisplay.contrast);
    1e36:	0e 94 35 03 	call	0x66a	; 0x66a <alpha_setContrast>
							eeprom_update_byte(&eeprom_alphaDisplay.contrast, alphaDisplay.contrast);
    1e3a:	c8 5d       	subi	r28, 0xD8	; 216
    1e3c:	de 4f       	sbci	r29, 0xFE	; 254
    1e3e:	68 81       	ld	r22, Y
    1e40:	c8 52       	subi	r28, 0x28	; 40
    1e42:	d1 40       	sbci	r29, 0x01	; 1
    1e44:	81 e0       	ldi	r24, 0x01	; 1
    1e46:	90 e0       	ldi	r25, 0x00	; 0
    1e48:	0e 94 22 20 	call	0x4044	; 0x4044 <__eeupd_byte_x32a4>
    1e4c:	3f c0       	rjmp	.+126    	; 0x1ecc <main+0x1170>
						}
						break;
					
					case 78:							// led mode
						led_data.mode = aDataSet.data;
    1e4e:	6c 81       	ldd	r22, Y+4	; 0x04
    1e50:	cc 5e       	subi	r28, 0xEC	; 236
    1e52:	de 4f       	sbci	r29, 0xFE	; 254
    1e54:	68 83       	st	Y, r22
    1e56:	c4 51       	subi	r28, 0x14	; 20
    1e58:	d1 40       	sbci	r29, 0x01	; 1
						eeprom_update_byte(&eeprom_led_data.mode, led_data.mode);
    1e5a:	86 e2       	ldi	r24, 0x26	; 38
    1e5c:	91 e0       	ldi	r25, 0x01	; 1
    1e5e:	0e 94 22 20 	call	0x4044	; 0x4044 <__eeupd_byte_x32a4>
						ledCtr = 0;
    1e62:	cb 5a       	subi	r28, 0xAB	; 171
    1e64:	dd 4f       	sbci	r29, 0xFD	; 253
    1e66:	18 82       	st	Y, r1
    1e68:	19 82       	std	Y+1, r1	; 0x01
    1e6a:	c5 55       	subi	r28, 0x55	; 85
    1e6c:	d2 40       	sbci	r29, 0x02	; 2
						break;
    1e6e:	2e c0       	rjmp	.+92     	; 0x1ecc <main+0x1170>
						
					case 79:							// led manual power
						led_data.manualPower[aDataSet.index-1] = aDataSet.data;
    1e70:	8b 81       	ldd	r24, Y+3	; 0x03
    1e72:	90 e0       	ldi	r25, 0x00	; 0
    1e74:	fc 01       	movw	r30, r24
    1e76:	31 97       	sbiw	r30, 0x01	; 1
    1e78:	6c 81       	ldd	r22, Y+4	; 0x04
    1e7a:	a4 e1       	ldi	r26, 0x14	; 20
    1e7c:	b1 e0       	ldi	r27, 0x01	; 1
    1e7e:	ac 0f       	add	r26, r28
    1e80:	bd 1f       	adc	r27, r29
    1e82:	ea 0f       	add	r30, r26
    1e84:	fb 1f       	adc	r31, r27
    1e86:	61 83       	std	Z+1, r22	; 0x01
						eeprom_update_byte(&eeprom_led_data.manualPower[aDataSet.index-1], led_data.manualPower[aDataSet.index-1]);
    1e88:	8a 5d       	subi	r24, 0xDA	; 218
    1e8a:	9e 4f       	sbci	r25, 0xFE	; 254
    1e8c:	0e 94 22 20 	call	0x4044	; 0x4044 <__eeupd_byte_x32a4>
						break;
    1e90:	1d c0       	rjmp	.+58     	; 0x1ecc <main+0x1170>
						
					case 80:							// display content
						alphaDisplay.content[aDataSet.index-1] = aDataSet.data;
    1e92:	8b 81       	ldd	r24, Y+3	; 0x03
    1e94:	90 e0       	ldi	r25, 0x00	; 0
    1e96:	6c 81       	ldd	r22, Y+4	; 0x04
    1e98:	e7 e2       	ldi	r30, 0x27	; 39
    1e9a:	f1 e0       	ldi	r31, 0x01	; 1
    1e9c:	ec 0f       	add	r30, r28
    1e9e:	fd 1f       	adc	r31, r29
    1ea0:	e8 0f       	add	r30, r24
    1ea2:	f9 1f       	adc	r31, r25
    1ea4:	60 a3       	std	Z+32, r22	; 0x20
						eeprom_update_byte(&eeprom_alphaDisplay.content[aDataSet.index-1], alphaDisplay.content[aDataSet.index-1]);
    1ea6:	80 5e       	subi	r24, 0xE0	; 224
    1ea8:	9f 4f       	sbci	r25, 0xFF	; 255
    1eaa:	0e 94 22 20 	call	0x4044	; 0x4044 <__eeupd_byte_x32a4>
						break;
    1eae:	0e c0       	rjmp	.+28     	; 0x1ecc <main+0x1170>
						
					case 81:							// display screens
						alphaDisplay.screen[aDataSet.index-1] = aDataSet.data;
    1eb0:	8b 81       	ldd	r24, Y+3	; 0x03
    1eb2:	90 e0       	ldi	r25, 0x00	; 0
    1eb4:	6c 81       	ldd	r22, Y+4	; 0x04
    1eb6:	e7 e2       	ldi	r30, 0x27	; 39
    1eb8:	f1 e0       	ldi	r31, 0x01	; 1
    1eba:	ec 0f       	add	r30, r28
    1ebc:	fd 1f       	adc	r31, r29
    1ebe:	e8 0f       	add	r30, r24
    1ec0:	f9 1f       	adc	r31, r25
    1ec2:	61 83       	std	Z+1, r22	; 0x01
						eeprom_update_byte(&eeprom_alphaDisplay.screen[aDataSet.index-1], alphaDisplay.screen[aDataSet.index-1]);
    1ec4:	8f 5f       	subi	r24, 0xFF	; 255
    1ec6:	9f 4f       	sbci	r25, 0xFF	; 255
    1ec8:	0e 94 22 20 	call	0x4044	; 0x4044 <__eeupd_byte_x32a4>
						break;												
				}				
			}
			
			if (aDataSet.dA == SERIALPORT_ASK)			// new ask
    1ecc:	89 81       	ldd	r24, Y+1	; 0x01
    1ece:	81 30       	cpi	r24, 0x01	; 1
    1ed0:	09 f0       	breq	.+2      	; 0x1ed4 <main+0x1178>
    1ed2:	2e c9       	rjmp	.-3492   	; 0x1130 <main+0x3d4>
			{
				aDataSet.dA = SERIALPORT_DATA;			// return always data
    1ed4:	19 82       	std	Y+1, r1	; 0x01
				switch(aDataSet.id)
    1ed6:	ea 81       	ldd	r30, Y+2	; 0x02
    1ed8:	f0 e0       	ldi	r31, 0x00	; 0
    1eda:	e2 35       	cpi	r30, 0x52	; 82
    1edc:	f1 05       	cpc	r31, r1
    1ede:	08 f0       	brcs	.+2      	; 0x1ee2 <main+0x1186>
    1ee0:	27 c9       	rjmp	.-3506   	; 0x1130 <main+0x3d4>
    1ee2:	e3 5f       	subi	r30, 0xF3	; 243
    1ee4:	fe 4f       	sbci	r31, 0xFE	; 254
    1ee6:	0c 94 ca 1f 	jmp	0x3f94	; 0x3f94 <__tablejump2__>
				{
					case 0:								// ask for everything
						aDataSet.id = 02;
    1eea:	12 e0       	ldi	r17, 0x02	; 2
    1eec:	1a 83       	std	Y+2, r17	; 0x02
						aDataSet.index = 1;
    1eee:	81 e0       	ldi	r24, 0x01	; 1
    1ef0:	8b 83       	std	Y+3, r24	; 0x03
						aDataSet.data = FIRMWAREVERSION;
    1ef2:	85 e0       	ldi	r24, 0x05	; 5
    1ef4:	90 e0       	ldi	r25, 0x00	; 0
    1ef6:	8c 83       	std	Y+4, r24	; 0x04
    1ef8:	9d 83       	std	Y+5, r25	; 0x05
						serialport_writeCarriage(&aDataSet);
    1efa:	ce 01       	movw	r24, r28
    1efc:	01 96       	adiw	r24, 0x01	; 1
    1efe:	0e 94 aa 19 	call	0x3354	; 0x3354 <serialport_writeCarriage>
						aDataSet.index = 2;
    1f02:	1b 83       	std	Y+3, r17	; 0x03
						aDataSet.data = EEPROMVERSION;
    1f04:	81 e0       	ldi	r24, 0x01	; 1
    1f06:	90 e0       	ldi	r25, 0x00	; 0
    1f08:	8c 83       	std	Y+4, r24	; 0x04
    1f0a:	9d 83       	std	Y+5, r25	; 0x05
						serialport_writeCarriage(&aDataSet);for (i=0;i<24;i++)
    1f0c:	ce 01       	movw	r24, r28
    1f0e:	01 96       	adiw	r24, 0x01	; 1
    1f10:	0e 94 aa 19 	call	0x3354	; 0x3354 <serialport_writeCarriage>
    1f14:	0f 2e       	mov	r0, r31
    1f16:	f8 e2       	ldi	r31, 0x28	; 40
    1f18:	af 2e       	mov	r10, r31
    1f1a:	b1 2c       	mov	r11, r1
    1f1c:	f0 2d       	mov	r31, r0
    1f1e:	ac 0e       	add	r10, r28
    1f20:	bd 1e       	adc	r11, r29
    1f22:	65 01       	movw	r12, r10
    1f24:	b8 e1       	ldi	r27, 0x18	; 24
    1f26:	cb 0e       	add	r12, r27
    1f28:	d1 1c       	adc	r13, r1
    1f2a:	75 01       	movw	r14, r10
    1f2c:	e6 e3       	ldi	r30, 0x36	; 54
    1f2e:	ee 0e       	add	r14, r30
    1f30:	f1 1c       	adc	r15, r1
    1f32:	9e 01       	movw	r18, r28
    1f34:	2a 58       	subi	r18, 0x8A	; 138
    1f36:	3f 4f       	sbci	r19, 0xFF	; 255
    1f38:	c9 5b       	subi	r28, 0xB9	; 185
    1f3a:	dd 4f       	sbci	r29, 0xFD	; 253
    1f3c:	28 83       	st	Y, r18
    1f3e:	39 83       	std	Y+1, r19	; 0x01
    1f40:	c7 54       	subi	r28, 0x47	; 71
    1f42:	d2 40       	sbci	r29, 0x02	; 2
    1f44:	4e 01       	movw	r8, r28
    1f46:	34 e9       	ldi	r19, 0x94	; 148
    1f48:	83 0e       	add	r8, r19
    1f4a:	91 1c       	adc	r9, r1
    1f4c:	3e 01       	movw	r6, r28
    1f4e:	4c ea       	ldi	r20, 0xAC	; 172
    1f50:	64 0e       	add	r6, r20
    1f52:	71 1c       	adc	r7, r1
    1f54:	2e 01       	movw	r4, r28
    1f56:	8a ec       	ldi	r24, 0xCA	; 202
    1f58:	48 0e       	add	r4, r24
    1f5a:	51 1c       	adc	r5, r1
    1f5c:	1e 01       	movw	r2, r28
    1f5e:	92 ee       	ldi	r25, 0xE2	; 226
    1f60:	29 0e       	add	r2, r25
    1f62:	31 1c       	adc	r3, r1
    1f64:	10 e0       	ldi	r17, 0x00	; 0
							aDataSet.data = channel_data[2].maxTemp[i];
							serialport_writeCarriage(&aDataSet);
							aDataSet.id = 14;			// 14
							aDataSet.data = channel_data[3].minTemp[i];
							serialport_writeCarriage(&aDataSet);
							aDataSet.id = 24;			// 24
    1f66:	08 e1       	ldi	r16, 0x18	; 24
						serialport_writeCarriage(&aDataSet);
						aDataSet.index = 2;
						aDataSet.data = EEPROMVERSION;
						serialport_writeCarriage(&aDataSet);for (i=0;i<24;i++)
						{
							aDataSet.id = 11;			// 11
    1f68:	ab e0       	ldi	r26, 0x0B	; 11
    1f6a:	aa 83       	std	Y+2, r26	; 0x02
							aDataSet.index = i+1;
    1f6c:	1f 5f       	subi	r17, 0xFF	; 255
    1f6e:	1b 83       	std	Y+3, r17	; 0x03
							aDataSet.data = channel_data[0].minTemp[i];
    1f70:	f5 01       	movw	r30, r10
    1f72:	81 91       	ld	r24, Z+
    1f74:	5f 01       	movw	r10, r30
    1f76:	8c 83       	std	Y+4, r24	; 0x04
    1f78:	1d 82       	std	Y+5, r1	; 0x05
							serialport_writeCarriage(&aDataSet);
    1f7a:	ce 01       	movw	r24, r28
    1f7c:	01 96       	adiw	r24, 0x01	; 1
    1f7e:	0e 94 aa 19 	call	0x3354	; 0x3354 <serialport_writeCarriage>
							aDataSet.id = 21;			// 21
    1f82:	f5 e1       	ldi	r31, 0x15	; 21
    1f84:	fa 83       	std	Y+2, r31	; 0x02
							aDataSet.data = channel_data[0].maxTemp[i];
    1f86:	d6 01       	movw	r26, r12
    1f88:	8d 91       	ld	r24, X+
    1f8a:	6d 01       	movw	r12, r26
    1f8c:	8c 83       	std	Y+4, r24	; 0x04
    1f8e:	1d 82       	std	Y+5, r1	; 0x05
							serialport_writeCarriage(&aDataSet);
    1f90:	ce 01       	movw	r24, r28
    1f92:	01 96       	adiw	r24, 0x01	; 1
    1f94:	0e 94 aa 19 	call	0x3354	; 0x3354 <serialport_writeCarriage>
							aDataSet.id = 12;			// 12
    1f98:	bc e0       	ldi	r27, 0x0C	; 12
    1f9a:	ba 83       	std	Y+2, r27	; 0x02
							aDataSet.data = channel_data[1].minTemp[i];
    1f9c:	f7 01       	movw	r30, r14
    1f9e:	81 91       	ld	r24, Z+
    1fa0:	7f 01       	movw	r14, r30
    1fa2:	8c 83       	std	Y+4, r24	; 0x04
    1fa4:	1d 82       	std	Y+5, r1	; 0x05
							serialport_writeCarriage(&aDataSet);
    1fa6:	ce 01       	movw	r24, r28
    1fa8:	01 96       	adiw	r24, 0x01	; 1
    1faa:	0e 94 aa 19 	call	0x3354	; 0x3354 <serialport_writeCarriage>
							aDataSet.id = 22;			// 22
    1fae:	f6 e1       	ldi	r31, 0x16	; 22
    1fb0:	fa 83       	std	Y+2, r31	; 0x02
							aDataSet.data = channel_data[1].maxTemp[i];
    1fb2:	c9 5b       	subi	r28, 0xB9	; 185
    1fb4:	dd 4f       	sbci	r29, 0xFD	; 253
    1fb6:	a8 81       	ld	r26, Y
    1fb8:	b9 81       	ldd	r27, Y+1	; 0x01
    1fba:	c7 54       	subi	r28, 0x47	; 71
    1fbc:	d2 40       	sbci	r29, 0x02	; 2
    1fbe:	8d 91       	ld	r24, X+
    1fc0:	c9 5b       	subi	r28, 0xB9	; 185
    1fc2:	dd 4f       	sbci	r29, 0xFD	; 253
    1fc4:	a8 83       	st	Y, r26
    1fc6:	b9 83       	std	Y+1, r27	; 0x01
    1fc8:	c7 54       	subi	r28, 0x47	; 71
    1fca:	d2 40       	sbci	r29, 0x02	; 2
    1fcc:	8c 83       	std	Y+4, r24	; 0x04
    1fce:	1d 82       	std	Y+5, r1	; 0x05
							serialport_writeCarriage(&aDataSet);
    1fd0:	ce 01       	movw	r24, r28
    1fd2:	01 96       	adiw	r24, 0x01	; 1
    1fd4:	0e 94 aa 19 	call	0x3354	; 0x3354 <serialport_writeCarriage>
							aDataSet.id = 13;			// 13
    1fd8:	bd e0       	ldi	r27, 0x0D	; 13
    1fda:	ba 83       	std	Y+2, r27	; 0x02
							aDataSet.data = channel_data[2].minTemp[i];
    1fdc:	f4 01       	movw	r30, r8
    1fde:	81 91       	ld	r24, Z+
    1fe0:	4f 01       	movw	r8, r30
    1fe2:	8c 83       	std	Y+4, r24	; 0x04
    1fe4:	1d 82       	std	Y+5, r1	; 0x05
							serialport_writeCarriage(&aDataSet);
    1fe6:	ce 01       	movw	r24, r28
    1fe8:	01 96       	adiw	r24, 0x01	; 1
    1fea:	0e 94 aa 19 	call	0x3354	; 0x3354 <serialport_writeCarriage>
							aDataSet.id = 23;			// 23
    1fee:	f7 e1       	ldi	r31, 0x17	; 23
    1ff0:	fa 83       	std	Y+2, r31	; 0x02
							aDataSet.data = channel_data[2].maxTemp[i];
    1ff2:	d3 01       	movw	r26, r6
    1ff4:	8d 91       	ld	r24, X+
    1ff6:	3d 01       	movw	r6, r26
    1ff8:	8c 83       	std	Y+4, r24	; 0x04
    1ffa:	1d 82       	std	Y+5, r1	; 0x05
							serialport_writeCarriage(&aDataSet);
    1ffc:	ce 01       	movw	r24, r28
    1ffe:	01 96       	adiw	r24, 0x01	; 1
    2000:	0e 94 aa 19 	call	0x3354	; 0x3354 <serialport_writeCarriage>
							aDataSet.id = 14;			// 14
    2004:	be e0       	ldi	r27, 0x0E	; 14
    2006:	ba 83       	std	Y+2, r27	; 0x02
							aDataSet.data = channel_data[3].minTemp[i];
    2008:	f2 01       	movw	r30, r4
    200a:	81 91       	ld	r24, Z+
    200c:	2f 01       	movw	r4, r30
    200e:	8c 83       	std	Y+4, r24	; 0x04
    2010:	1d 82       	std	Y+5, r1	; 0x05
							serialport_writeCarriage(&aDataSet);
    2012:	ce 01       	movw	r24, r28
    2014:	01 96       	adiw	r24, 0x01	; 1
    2016:	0e 94 aa 19 	call	0x3354	; 0x3354 <serialport_writeCarriage>
							aDataSet.id = 24;			// 24
    201a:	0a 83       	std	Y+2, r16	; 0x02
							aDataSet.data = channel_data[3].maxTemp[i];
    201c:	d1 01       	movw	r26, r2
    201e:	8d 91       	ld	r24, X+
    2020:	1d 01       	movw	r2, r26
    2022:	8c 83       	std	Y+4, r24	; 0x04
    2024:	1d 82       	std	Y+5, r1	; 0x05
							serialport_writeCarriage(&aDataSet);							
    2026:	ce 01       	movw	r24, r28
    2028:	01 96       	adiw	r24, 0x01	; 1
    202a:	0e 94 aa 19 	call	0x3354	; 0x3354 <serialport_writeCarriage>
						aDataSet.index = 1;
						aDataSet.data = FIRMWAREVERSION;
						serialport_writeCarriage(&aDataSet);
						aDataSet.index = 2;
						aDataSet.data = EEPROMVERSION;
						serialport_writeCarriage(&aDataSet);for (i=0;i<24;i++)
    202e:	18 31       	cpi	r17, 0x18	; 24
    2030:	09 f0       	breq	.+2      	; 0x2034 <main+0x12d8>
    2032:	9a cf       	rjmp	.-204    	; 0x1f68 <main+0x120c>
							serialport_writeCarriage(&aDataSet);
							aDataSet.id = 24;			// 24
							aDataSet.data = channel_data[3].maxTemp[i];
							serialport_writeCarriage(&aDataSet);							
						}
						aDataSet.id = 31;				// 31
    2034:	8f e1       	ldi	r24, 0x1F	; 31
    2036:	8a 83       	std	Y+2, r24	; 0x02
    2038:	8e 01       	movw	r16, r28
    203a:	02 5e       	subi	r16, 0xE2	; 226
    203c:	1f 4f       	sbci	r17, 0xFF	; 255
    203e:	0f 2e       	mov	r0, r31
    2040:	f1 e1       	ldi	r31, 0x11	; 17
    2042:	ff 2e       	mov	r15, r31
    2044:	f0 2d       	mov	r31, r0
						for (i=0;i<8;i++)
						{
							aDataSet.index = i+17;
    2046:	fb 82       	std	Y+3, r15	; 0x03
							aDataSet.data = spare_temperature[i];
    2048:	f8 01       	movw	r30, r16
    204a:	81 91       	ld	r24, Z+
    204c:	8f 01       	movw	r16, r30
    204e:	8c 83       	std	Y+4, r24	; 0x04
    2050:	1d 82       	std	Y+5, r1	; 0x05
							serialport_writeCarriage(&aDataSet);
    2052:	ce 01       	movw	r24, r28
    2054:	01 96       	adiw	r24, 0x01	; 1
    2056:	0e 94 aa 19 	call	0x3354	; 0x3354 <serialport_writeCarriage>
    205a:	f3 94       	inc	r15
							aDataSet.id = 24;			// 24
							aDataSet.data = channel_data[3].maxTemp[i];
							serialport_writeCarriage(&aDataSet);							
						}
						aDataSet.id = 31;				// 31
						for (i=0;i<8;i++)
    205c:	f9 e1       	ldi	r31, 0x19	; 25
    205e:	ff 12       	cpse	r15, r31
    2060:	f2 cf       	rjmp	.-28     	; 0x2046 <main+0x12ea>
						{
							aDataSet.index = i+17;
							aDataSet.data = spare_temperature[i];
							serialport_writeCarriage(&aDataSet);
						}						
						aDataSet.id = 32;				// 32
    2062:	80 e2       	ldi	r24, 0x20	; 32
    2064:	8a 83       	std	Y+2, r24	; 0x02
						aDataSet.index = 1;
    2066:	81 e0       	ldi	r24, 0x01	; 1
    2068:	8b 83       	std	Y+3, r24	; 0x03
						aDataSet.data = tempSensor_getOneWireAmount();
    206a:	0e 94 7e 1d 	call	0x3afc	; 0x3afc <tempSensor_getOneWireAmount>
    206e:	8c 83       	std	Y+4, r24	; 0x04
    2070:	1d 82       	std	Y+5, r1	; 0x05
						serialport_writeCarriage(&aDataSet);												
    2072:	ce 01       	movw	r24, r28
    2074:	01 96       	adiw	r24, 0x01	; 1
    2076:	0e 94 aa 19 	call	0x3354	; 0x3354 <serialport_writeCarriage>
						aDataSet.id = 33;				// 33
    207a:	81 e2       	ldi	r24, 0x21	; 33
    207c:	8a 83       	std	Y+2, r24	; 0x02
						for (i=0;i<(8*tempSensor_getOneWireAmount());i++)
    207e:	10 e0       	ldi	r17, 0x00	; 0
    2080:	0d c0       	rjmp	.+26     	; 0x209c <main+0x1340>
						{
							aDataSet.index = i+1;
    2082:	01 2f       	mov	r16, r17
    2084:	0f 5f       	subi	r16, 0xFF	; 255
    2086:	0b 83       	std	Y+3, r16	; 0x03
							aDataSet.data = tempSensor_getOneWireID(i);
    2088:	81 2f       	mov	r24, r17
    208a:	0e 94 81 1d 	call	0x3b02	; 0x3b02 <tempSensor_getOneWireID>
    208e:	8c 83       	std	Y+4, r24	; 0x04
    2090:	1d 82       	std	Y+5, r1	; 0x05
							serialport_writeCarriage(&aDataSet);
    2092:	ce 01       	movw	r24, r28
    2094:	01 96       	adiw	r24, 0x01	; 1
    2096:	0e 94 aa 19 	call	0x3354	; 0x3354 <serialport_writeCarriage>
						aDataSet.id = 32;				// 32
						aDataSet.index = 1;
						aDataSet.data = tempSensor_getOneWireAmount();
						serialport_writeCarriage(&aDataSet);												
						aDataSet.id = 33;				// 33
						for (i=0;i<(8*tempSensor_getOneWireAmount());i++)
    209a:	10 2f       	mov	r17, r16
    209c:	0e 94 7e 1d 	call	0x3afc	; 0x3afc <tempSensor_getOneWireAmount>
    20a0:	21 2f       	mov	r18, r17
    20a2:	30 e0       	ldi	r19, 0x00	; 0
    20a4:	48 e0       	ldi	r20, 0x08	; 8
    20a6:	84 9f       	mul	r24, r20
    20a8:	c0 01       	movw	r24, r0
    20aa:	11 24       	eor	r1, r1
    20ac:	28 17       	cp	r18, r24
    20ae:	39 07       	cpc	r19, r25
    20b0:	44 f3       	brlt	.-48     	; 0x2082 <main+0x1326>
						{
							aDataSet.index = i+1;
							aDataSet.data = tempSensor_getOneWireID(i);
							serialport_writeCarriage(&aDataSet);
						}						
						aDataSet.id = 51;				// 51
    20b2:	83 e3       	ldi	r24, 0x33	; 51
    20b4:	8a 83       	std	Y+2, r24	; 0x02
						aDataSet.index = 1;
    20b6:	01 e0       	ldi	r16, 0x01	; 1
    20b8:	0b 83       	std	Y+3, r16	; 0x03
						aDataSet.data = alert_data.overtempEnable;
    20ba:	c8 5e       	subi	r28, 0xE8	; 232
    20bc:	de 4f       	sbci	r29, 0xFE	; 254
    20be:	88 81       	ld	r24, Y
    20c0:	c8 51       	subi	r28, 0x18	; 24
    20c2:	d1 40       	sbci	r29, 0x01	; 1
    20c4:	8c 83       	std	Y+4, r24	; 0x04
    20c6:	1d 82       	std	Y+5, r1	; 0x05
						serialport_writeCarriage(&aDataSet);
    20c8:	ce 01       	movw	r24, r28
    20ca:	01 96       	adiw	r24, 0x01	; 1
    20cc:	0e 94 aa 19 	call	0x3354	; 0x3354 <serialport_writeCarriage>
						aDataSet.index = 2;
    20d0:	12 e0       	ldi	r17, 0x02	; 2
    20d2:	1b 83       	std	Y+3, r17	; 0x03
						aDataSet.data = alert_data.fanblockEnable;
    20d4:	c7 5e       	subi	r28, 0xE7	; 231
    20d6:	de 4f       	sbci	r29, 0xFE	; 254
    20d8:	88 81       	ld	r24, Y
    20da:	c9 51       	subi	r28, 0x19	; 25
    20dc:	d1 40       	sbci	r29, 0x01	; 1
    20de:	8c 83       	std	Y+4, r24	; 0x04
    20e0:	1d 82       	std	Y+5, r1	; 0x05
						serialport_writeCarriage(&aDataSet);
    20e2:	ce 01       	movw	r24, r28
    20e4:	01 96       	adiw	r24, 0x01	; 1
    20e6:	0e 94 aa 19 	call	0x3354	; 0x3354 <serialport_writeCarriage>
						aDataSet.id = 70;				// 70
    20ea:	86 e4       	ldi	r24, 0x46	; 70
    20ec:	8a 83       	std	Y+2, r24	; 0x02
						aDataSet.index = 1;
    20ee:	0b 83       	std	Y+3, r16	; 0x03
						aDataSet.data = pulsePerLiter;
    20f0:	c3 58       	subi	r28, 0x83	; 131
    20f2:	dd 4f       	sbci	r29, 0xFD	; 253
    20f4:	88 81       	ld	r24, Y
    20f6:	99 81       	ldd	r25, Y+1	; 0x01
    20f8:	cd 57       	subi	r28, 0x7D	; 125
    20fa:	d2 40       	sbci	r29, 0x02	; 2
    20fc:	8c 83       	std	Y+4, r24	; 0x04
    20fe:	9d 83       	std	Y+5, r25	; 0x05
						serialport_writeCarriage(&aDataSet);
    2100:	ce 01       	movw	r24, r28
    2102:	01 96       	adiw	r24, 0x01	; 1
    2104:	0e 94 aa 19 	call	0x3354	; 0x3354 <serialport_writeCarriage>
						aDataSet.index = 2;
    2108:	1b 83       	std	Y+3, r17	; 0x03
						aDataSet.data = alert_data.minWaterFlow;
    210a:	c6 5e       	subi	r28, 0xE6	; 230
    210c:	de 4f       	sbci	r29, 0xFE	; 254
    210e:	88 81       	ld	r24, Y
    2110:	99 81       	ldd	r25, Y+1	; 0x01
    2112:	ca 51       	subi	r28, 0x1A	; 26
    2114:	d1 40       	sbci	r29, 0x01	; 1
    2116:	8c 83       	std	Y+4, r24	; 0x04
    2118:	9d 83       	std	Y+5, r25	; 0x05
						serialport_writeCarriage(&aDataSet);
    211a:	ce 01       	movw	r24, r28
    211c:	01 96       	adiw	r24, 0x01	; 1
    211e:	0e 94 aa 19 	call	0x3354	; 0x3354 <serialport_writeCarriage>
						for (i=0;i<4;i++)
    2122:	10 e0       	ldi	r17, 0x00	; 0
						{
							aDataSet.id = 71;				// 71
    2124:	0f 2e       	mov	r0, r31
    2126:	f7 e4       	ldi	r31, 0x47	; 71
    2128:	bf 2e       	mov	r11, r31
    212a:	f0 2d       	mov	r31, r0
							aDataSet.index = i+1;
							aDataSet.data = channel_data[i].manualPower;
							serialport_writeCarriage(&aDataSet);
							aDataSet.id = 72;				// 72
    212c:	0f 2e       	mov	r0, r31
    212e:	f8 e4       	ldi	r31, 0x48	; 72
    2130:	cf 2e       	mov	r12, r31
    2132:	f0 2d       	mov	r31, r0
							aDataSet.data = channel_data[i].startupTime;
							serialport_writeCarriage(&aDataSet);
							aDataSet.id = 73;				// 73
    2134:	0f 2e       	mov	r0, r31
    2136:	f9 e4       	ldi	r31, 0x49	; 73
    2138:	df 2e       	mov	r13, r31
    213a:	f0 2d       	mov	r31, r0
							aDataSet.data = channel_data[i].minimumPower;
							serialport_writeCarriage(&aDataSet);
							aDataSet.id = 74;				// 74
    213c:	0f 2e       	mov	r0, r31
    213e:	fa e4       	ldi	r31, 0x4A	; 74
    2140:	ef 2e       	mov	r14, r31
    2142:	f0 2d       	mov	r31, r0
							aDataSet.data = channel_data[i].automaticMode;
							serialport_writeCarriage(&aDataSet);
							aDataSet.id = 75;				// 75
    2144:	0f 2e       	mov	r0, r31
    2146:	fb e4       	ldi	r31, 0x4B	; 75
    2148:	ff 2e       	mov	r15, r31
    214a:	f0 2d       	mov	r31, r0
							aDataSet.data = channel_data[i].stopEnable;
							serialport_writeCarriage(&aDataSet);
							aDataSet.id = 76;				// 76
    214c:	0c e4       	ldi	r16, 0x4C	; 76
    214e:	c6 59       	subi	r28, 0x96	; 150
    2150:	dd 4f       	sbci	r29, 0xFD	; 253
    2152:	88 80       	ld	r8, Y
    2154:	99 80       	ldd	r9, Y+1	; 0x01
    2156:	ca 56       	subi	r28, 0x6A	; 106
    2158:	d2 40       	sbci	r29, 0x02	; 2
						aDataSet.index = 2;
						aDataSet.data = alert_data.minWaterFlow;
						serialport_writeCarriage(&aDataSet);
						for (i=0;i<4;i++)
						{
							aDataSet.id = 71;				// 71
    215a:	ba 82       	std	Y+2, r11	; 0x02
							aDataSet.index = i+1;
    215c:	1f 5f       	subi	r17, 0xFF	; 255
    215e:	1b 83       	std	Y+3, r17	; 0x03
#include "TempSensor.h"
#include "EEPROM_data.h"
#include "AlphanumericDisplay.h"


int main(void)
    2160:	f4 01       	movw	r30, r8
    2162:	35 97       	sbiw	r30, 0x05	; 5
						serialport_writeCarriage(&aDataSet);
						for (i=0;i<4;i++)
						{
							aDataSet.id = 71;				// 71
							aDataSet.index = i+1;
							aDataSet.data = channel_data[i].manualPower;
    2164:	80 81       	ld	r24, Z
    2166:	8c 83       	std	Y+4, r24	; 0x04
    2168:	1d 82       	std	Y+5, r1	; 0x05
							serialport_writeCarriage(&aDataSet);
    216a:	ce 01       	movw	r24, r28
    216c:	01 96       	adiw	r24, 0x01	; 1
    216e:	0e 94 aa 19 	call	0x3354	; 0x3354 <serialport_writeCarriage>
							aDataSet.id = 72;				// 72
    2172:	ca 82       	std	Y+2, r12	; 0x02
#include "TempSensor.h"
#include "EEPROM_data.h"
#include "AlphanumericDisplay.h"


int main(void)
    2174:	f4 01       	movw	r30, r8
    2176:	33 97       	sbiw	r30, 0x03	; 3
							aDataSet.id = 71;				// 71
							aDataSet.index = i+1;
							aDataSet.data = channel_data[i].manualPower;
							serialport_writeCarriage(&aDataSet);
							aDataSet.id = 72;				// 72
							aDataSet.data = channel_data[i].startupTime;
    2178:	80 81       	ld	r24, Z
    217a:	8c 83       	std	Y+4, r24	; 0x04
    217c:	1d 82       	std	Y+5, r1	; 0x05
							serialport_writeCarriage(&aDataSet);
    217e:	ce 01       	movw	r24, r28
    2180:	01 96       	adiw	r24, 0x01	; 1
    2182:	0e 94 aa 19 	call	0x3354	; 0x3354 <serialport_writeCarriage>
							aDataSet.id = 73;				// 73
    2186:	da 82       	std	Y+2, r13	; 0x02
#include "TempSensor.h"
#include "EEPROM_data.h"
#include "AlphanumericDisplay.h"


int main(void)
    2188:	f4 01       	movw	r30, r8
    218a:	34 97       	sbiw	r30, 0x04	; 4
							serialport_writeCarriage(&aDataSet);
							aDataSet.id = 72;				// 72
							aDataSet.data = channel_data[i].startupTime;
							serialport_writeCarriage(&aDataSet);
							aDataSet.id = 73;				// 73
							aDataSet.data = channel_data[i].minimumPower;
    218c:	80 81       	ld	r24, Z
    218e:	8c 83       	std	Y+4, r24	; 0x04
    2190:	1d 82       	std	Y+5, r1	; 0x05
							serialport_writeCarriage(&aDataSet);
    2192:	ce 01       	movw	r24, r28
    2194:	01 96       	adiw	r24, 0x01	; 1
    2196:	0e 94 aa 19 	call	0x3354	; 0x3354 <serialport_writeCarriage>
							aDataSet.id = 74;				// 74
    219a:	ea 82       	std	Y+2, r14	; 0x02
#include "TempSensor.h"
#include "EEPROM_data.h"
#include "AlphanumericDisplay.h"


int main(void)
    219c:	f4 01       	movw	r30, r8
    219e:	32 97       	sbiw	r30, 0x02	; 2
							serialport_writeCarriage(&aDataSet);
							aDataSet.id = 73;				// 73
							aDataSet.data = channel_data[i].minimumPower;
							serialport_writeCarriage(&aDataSet);
							aDataSet.id = 74;				// 74
							aDataSet.data = channel_data[i].automaticMode;
    21a0:	80 81       	ld	r24, Z
    21a2:	8c 83       	std	Y+4, r24	; 0x04
    21a4:	1d 82       	std	Y+5, r1	; 0x05
							serialport_writeCarriage(&aDataSet);
    21a6:	ce 01       	movw	r24, r28
    21a8:	01 96       	adiw	r24, 0x01	; 1
    21aa:	0e 94 aa 19 	call	0x3354	; 0x3354 <serialport_writeCarriage>
							aDataSet.id = 75;				// 75
    21ae:	fa 82       	std	Y+2, r15	; 0x02
#include "TempSensor.h"
#include "EEPROM_data.h"
#include "AlphanumericDisplay.h"


int main(void)
    21b0:	f4 01       	movw	r30, r8
    21b2:	31 97       	sbiw	r30, 0x01	; 1
							serialport_writeCarriage(&aDataSet);
							aDataSet.id = 74;				// 74
							aDataSet.data = channel_data[i].automaticMode;
							serialport_writeCarriage(&aDataSet);
							aDataSet.id = 75;				// 75
							aDataSet.data = channel_data[i].stopEnable;
    21b4:	80 81       	ld	r24, Z
    21b6:	8c 83       	std	Y+4, r24	; 0x04
    21b8:	1d 82       	std	Y+5, r1	; 0x05
							serialport_writeCarriage(&aDataSet);
    21ba:	ce 01       	movw	r24, r28
    21bc:	01 96       	adiw	r24, 0x01	; 1
    21be:	0e 94 aa 19 	call	0x3354	; 0x3354 <serialport_writeCarriage>
							aDataSet.id = 76;				// 76
    21c2:	0a 83       	std	Y+2, r16	; 0x02
							aDataSet.data = channel_data[i].threshold;
    21c4:	d4 01       	movw	r26, r8
    21c6:	8c 91       	ld	r24, X
    21c8:	8c 83       	std	Y+4, r24	; 0x04
    21ca:	1d 82       	std	Y+5, r1	; 0x05
							serialport_writeCarriage(&aDataSet);							
    21cc:	ce 01       	movw	r24, r28
    21ce:	01 96       	adiw	r24, 0x01	; 1
    21d0:	0e 94 aa 19 	call	0x3354	; 0x3354 <serialport_writeCarriage>
    21d4:	b6 e3       	ldi	r27, 0x36	; 54
    21d6:	8b 0e       	add	r8, r27
    21d8:	91 1c       	adc	r9, r1
						aDataSet.data = pulsePerLiter;
						serialport_writeCarriage(&aDataSet);
						aDataSet.index = 2;
						aDataSet.data = alert_data.minWaterFlow;
						serialport_writeCarriage(&aDataSet);
						for (i=0;i<4;i++)
    21da:	14 30       	cpi	r17, 0x04	; 4
    21dc:	09 f0       	breq	.+2      	; 0x21e0 <main+0x1484>
    21de:	bd cf       	rjmp	.-134    	; 0x215a <main+0x13fe>
							serialport_writeCarriage(&aDataSet);
							aDataSet.id = 76;				// 76
							aDataSet.data = channel_data[i].threshold;
							serialport_writeCarriage(&aDataSet);							
						}
						aDataSet.id = 77;					// 77
    21e0:	8d e4       	ldi	r24, 0x4D	; 77
    21e2:	8a 83       	std	Y+2, r24	; 0x02
						aDataSet.index = 1;
    21e4:	11 e0       	ldi	r17, 0x01	; 1
    21e6:	1b 83       	std	Y+3, r17	; 0x03
						aDataSet.data = alphaDisplay.backlight;
    21e8:	c9 5d       	subi	r28, 0xD9	; 217
    21ea:	de 4f       	sbci	r29, 0xFE	; 254
    21ec:	88 81       	ld	r24, Y
    21ee:	c7 52       	subi	r28, 0x27	; 39
    21f0:	d1 40       	sbci	r29, 0x01	; 1
    21f2:	8c 83       	std	Y+4, r24	; 0x04
    21f4:	1d 82       	std	Y+5, r1	; 0x05
						serialport_writeCarriage(&aDataSet);
    21f6:	ce 01       	movw	r24, r28
    21f8:	01 96       	adiw	r24, 0x01	; 1
    21fa:	0e 94 aa 19 	call	0x3354	; 0x3354 <serialport_writeCarriage>
						aDataSet.index = 2;
    21fe:	82 e0       	ldi	r24, 0x02	; 2
    2200:	8b 83       	std	Y+3, r24	; 0x03
						aDataSet.data = alphaDisplay.contrast;
    2202:	c8 5d       	subi	r28, 0xD8	; 216
    2204:	de 4f       	sbci	r29, 0xFE	; 254
    2206:	88 81       	ld	r24, Y
    2208:	c8 52       	subi	r28, 0x28	; 40
    220a:	d1 40       	sbci	r29, 0x01	; 1
    220c:	8c 83       	std	Y+4, r24	; 0x04
    220e:	1d 82       	std	Y+5, r1	; 0x05
						serialport_writeCarriage(&aDataSet);						
    2210:	ce 01       	movw	r24, r28
    2212:	01 96       	adiw	r24, 0x01	; 1
    2214:	0e 94 aa 19 	call	0x3354	; 0x3354 <serialport_writeCarriage>
						aDataSet.id = 78;					// 78
    2218:	8e e4       	ldi	r24, 0x4E	; 78
    221a:	8a 83       	std	Y+2, r24	; 0x02
						aDataSet.index = 1;
    221c:	1b 83       	std	Y+3, r17	; 0x03
						aDataSet.data = led_data.mode;
    221e:	cc 5e       	subi	r28, 0xEC	; 236
    2220:	de 4f       	sbci	r29, 0xFE	; 254
    2222:	88 81       	ld	r24, Y
    2224:	c4 51       	subi	r28, 0x14	; 20
    2226:	d1 40       	sbci	r29, 0x01	; 1
    2228:	8c 83       	std	Y+4, r24	; 0x04
    222a:	1d 82       	std	Y+5, r1	; 0x05
						serialport_writeCarriage(&aDataSet);
    222c:	ce 01       	movw	r24, r28
    222e:	01 96       	adiw	r24, 0x01	; 1
    2230:	0e 94 aa 19 	call	0x3354	; 0x3354 <serialport_writeCarriage>
						aDataSet.id = 79;					// 79
    2234:	8f e4       	ldi	r24, 0x4F	; 79
    2236:	8a 83       	std	Y+2, r24	; 0x02
    2238:	cf 57       	subi	r28, 0x7F	; 127
    223a:	dd 4f       	sbci	r29, 0xFD	; 253
    223c:	08 81       	ld	r16, Y
    223e:	19 81       	ldd	r17, Y+1	; 0x01
    2240:	c1 58       	subi	r28, 0x81	; 129
    2242:	d2 40       	sbci	r29, 0x02	; 2
						for (i=0;i<3;i++)
    2244:	f1 2c       	mov	r15, r1
						{
							aDataSet.index = i+1;
    2246:	f3 94       	inc	r15
    2248:	fb 82       	std	Y+3, r15	; 0x03
							aDataSet.data = led_data.manualPower[i];
    224a:	f8 01       	movw	r30, r16
    224c:	81 91       	ld	r24, Z+
    224e:	8f 01       	movw	r16, r30
    2250:	8c 83       	std	Y+4, r24	; 0x04
    2252:	1d 82       	std	Y+5, r1	; 0x05
							serialport_writeCarriage(&aDataSet);
    2254:	ce 01       	movw	r24, r28
    2256:	01 96       	adiw	r24, 0x01	; 1
    2258:	0e 94 aa 19 	call	0x3354	; 0x3354 <serialport_writeCarriage>
						aDataSet.id = 78;					// 78
						aDataSet.index = 1;
						aDataSet.data = led_data.mode;
						serialport_writeCarriage(&aDataSet);
						aDataSet.id = 79;					// 79
						for (i=0;i<3;i++)
    225c:	f3 e0       	ldi	r31, 0x03	; 3
    225e:	ff 12       	cpse	r15, r31
    2260:	f2 cf       	rjmp	.-28     	; 0x2246 <main+0x14ea>
						{
							aDataSet.index = i+1;
							aDataSet.data = led_data.manualPower[i];
							serialport_writeCarriage(&aDataSet);
						}
						aDataSet.id = 80;					// 80
    2262:	80 e5       	ldi	r24, 0x50	; 80
    2264:	8a 83       	std	Y+2, r24	; 0x02
    2266:	c1 58       	subi	r28, 0x81	; 129
    2268:	dd 4f       	sbci	r29, 0xFD	; 253
    226a:	08 81       	ld	r16, Y
    226c:	19 81       	ldd	r17, Y+1	; 0x01
    226e:	cf 57       	subi	r28, 0x7F	; 127
    2270:	d2 40       	sbci	r29, 0x02	; 2
						for (i=0;i<255;i++)				
    2272:	f1 2c       	mov	r15, r1
						{
							aDataSet.index = i+1;
    2274:	f3 94       	inc	r15
    2276:	fb 82       	std	Y+3, r15	; 0x03
							aDataSet.data = alphaDisplay.content[i];
    2278:	d8 01       	movw	r26, r16
    227a:	8d 91       	ld	r24, X+
    227c:	8d 01       	movw	r16, r26
    227e:	8c 83       	std	Y+4, r24	; 0x04
    2280:	1d 82       	std	Y+5, r1	; 0x05
							serialport_writeCarriage(&aDataSet);
    2282:	ce 01       	movw	r24, r28
    2284:	01 96       	adiw	r24, 0x01	; 1
    2286:	0e 94 aa 19 	call	0x3354	; 0x3354 <serialport_writeCarriage>
							aDataSet.index = i+1;
							aDataSet.data = led_data.manualPower[i];
							serialport_writeCarriage(&aDataSet);
						}
						aDataSet.id = 80;					// 80
						for (i=0;i<255;i++)				
    228a:	bf ef       	ldi	r27, 0xFF	; 255
    228c:	fb 12       	cpse	r15, r27
    228e:	f2 cf       	rjmp	.-28     	; 0x2274 <main+0x1518>
						{
							aDataSet.index = i+1;
							aDataSet.data = alphaDisplay.content[i];
							serialport_writeCarriage(&aDataSet);
						}
						aDataSet.id = 81;					// 81
    2290:	81 e5       	ldi	r24, 0x51	; 81
    2292:	8a 83       	std	Y+2, r24	; 0x02
    2294:	07 e2       	ldi	r16, 0x27	; 39
    2296:	11 e0       	ldi	r17, 0x01	; 1
    2298:	0c 0f       	add	r16, r28
    229a:	1d 1f       	adc	r17, r29
    229c:	0e 5f       	subi	r16, 0xFE	; 254
    229e:	1f 4f       	sbci	r17, 0xFF	; 255
						for (i=0;i<31;i++)
    22a0:	f1 2c       	mov	r15, r1
						{
							aDataSet.index = i+1;
    22a2:	f3 94       	inc	r15
    22a4:	fb 82       	std	Y+3, r15	; 0x03
							aDataSet.data = alphaDisplay.screen[i];
    22a6:	f8 01       	movw	r30, r16
    22a8:	81 91       	ld	r24, Z+
    22aa:	8f 01       	movw	r16, r30
    22ac:	8c 83       	std	Y+4, r24	; 0x04
    22ae:	1d 82       	std	Y+5, r1	; 0x05
							serialport_writeCarriage(&aDataSet);
    22b0:	ce 01       	movw	r24, r28
    22b2:	01 96       	adiw	r24, 0x01	; 1
    22b4:	0e 94 aa 19 	call	0x3354	; 0x3354 <serialport_writeCarriage>
							aDataSet.index = i+1;
							aDataSet.data = alphaDisplay.content[i];
							serialport_writeCarriage(&aDataSet);
						}
						aDataSet.id = 81;					// 81
						for (i=0;i<31;i++)
    22b8:	ff e1       	ldi	r31, 0x1F	; 31
    22ba:	ff 12       	cpse	r15, r31
    22bc:	f2 cf       	rjmp	.-28     	; 0x22a2 <main+0x1546>
    22be:	0c 94 98 08 	jmp	0x1130	; 0x1130 <main+0x3d4>
							serialport_writeCarriage(&aDataSet);
						}									
						break;
					
					case 02:
						if (aDataSet.index == 0)		// ask for all of them
    22c2:	8b 81       	ldd	r24, Y+3	; 0x03
    22c4:	81 11       	cpse	r24, r1
    22c6:	16 c0       	rjmp	.+44     	; 0x22f4 <main+0x1598>
						{
							aDataSet.index = 1;
    22c8:	81 e0       	ldi	r24, 0x01	; 1
    22ca:	8b 83       	std	Y+3, r24	; 0x03
							aDataSet.data = FIRMWAREVERSION;
    22cc:	85 e0       	ldi	r24, 0x05	; 5
    22ce:	90 e0       	ldi	r25, 0x00	; 0
    22d0:	8c 83       	std	Y+4, r24	; 0x04
    22d2:	9d 83       	std	Y+5, r25	; 0x05
							serialport_writeCarriage(&aDataSet);
    22d4:	ce 01       	movw	r24, r28
    22d6:	01 96       	adiw	r24, 0x01	; 1
    22d8:	0e 94 aa 19 	call	0x3354	; 0x3354 <serialport_writeCarriage>
							aDataSet.index = 2;
    22dc:	82 e0       	ldi	r24, 0x02	; 2
    22de:	8b 83       	std	Y+3, r24	; 0x03
							aDataSet.data = EEPROMVERSION;
    22e0:	81 e0       	ldi	r24, 0x01	; 1
    22e2:	90 e0       	ldi	r25, 0x00	; 0
    22e4:	8c 83       	std	Y+4, r24	; 0x04
    22e6:	9d 83       	std	Y+5, r25	; 0x05
							serialport_writeCarriage(&aDataSet);
    22e8:	ce 01       	movw	r24, r28
    22ea:	01 96       	adiw	r24, 0x01	; 1
    22ec:	0e 94 aa 19 	call	0x3354	; 0x3354 <serialport_writeCarriage>
    22f0:	0c 94 98 08 	jmp	0x1130	; 0x1130 <main+0x3d4>
						}
						else if (aDataSet.index == 1)
    22f4:	81 30       	cpi	r24, 0x01	; 1
    22f6:	51 f4       	brne	.+20     	; 0x230c <main+0x15b0>
						{
							aDataSet.data = FIRMWAREVERSION;
    22f8:	85 e0       	ldi	r24, 0x05	; 5
    22fa:	90 e0       	ldi	r25, 0x00	; 0
    22fc:	8c 83       	std	Y+4, r24	; 0x04
    22fe:	9d 83       	std	Y+5, r25	; 0x05
							serialport_writeCarriage(&aDataSet);
    2300:	ce 01       	movw	r24, r28
    2302:	01 96       	adiw	r24, 0x01	; 1
    2304:	0e 94 aa 19 	call	0x3354	; 0x3354 <serialport_writeCarriage>
    2308:	0c 94 98 08 	jmp	0x1130	; 0x1130 <main+0x3d4>
						}
						else if (aDataSet.index == 2)
    230c:	82 30       	cpi	r24, 0x02	; 2
    230e:	11 f0       	breq	.+4      	; 0x2314 <main+0x15b8>
    2310:	0c 94 98 08 	jmp	0x1130	; 0x1130 <main+0x3d4>
						{
							aDataSet.data = EEPROMVERSION;
    2314:	81 e0       	ldi	r24, 0x01	; 1
    2316:	90 e0       	ldi	r25, 0x00	; 0
    2318:	8c 83       	std	Y+4, r24	; 0x04
    231a:	9d 83       	std	Y+5, r25	; 0x05
							serialport_writeCarriage(&aDataSet);
    231c:	ce 01       	movw	r24, r28
    231e:	01 96       	adiw	r24, 0x01	; 1
    2320:	0e 94 aa 19 	call	0x3354	; 0x3354 <serialport_writeCarriage>
    2324:	0c 94 98 08 	jmp	0x1130	; 0x1130 <main+0x3d4>
						}
						break;
					
					case 11:
						if (aDataSet.index == 0)		// ask for all of them
    2328:	8b 81       	ldd	r24, Y+3	; 0x03
    232a:	81 11       	cpse	r24, r1
    232c:	14 c0       	rjmp	.+40     	; 0x2356 <main+0x15fa>
    232e:	8e 01       	movw	r16, r28
    2330:	08 5d       	subi	r16, 0xD8	; 216
    2332:	1f 4f       	sbci	r17, 0xFF	; 255
    2334:	f1 2c       	mov	r15, r1
						{							
							for (i=0;i<24;i++)
							{
								aDataSet.index = i+1;
    2336:	f3 94       	inc	r15
    2338:	fb 82       	std	Y+3, r15	; 0x03
								aDataSet.data = channel_data[0].minTemp[i];
    233a:	d8 01       	movw	r26, r16
    233c:	8d 91       	ld	r24, X+
    233e:	8d 01       	movw	r16, r26
    2340:	8c 83       	std	Y+4, r24	; 0x04
    2342:	1d 82       	std	Y+5, r1	; 0x05
								serialport_writeCarriage(&aDataSet);	
    2344:	ce 01       	movw	r24, r28
    2346:	01 96       	adiw	r24, 0x01	; 1
    2348:	0e 94 aa 19 	call	0x3354	; 0x3354 <serialport_writeCarriage>
						break;
					
					case 11:
						if (aDataSet.index == 0)		// ask for all of them
						{							
							for (i=0;i<24;i++)
    234c:	b8 e1       	ldi	r27, 0x18	; 24
    234e:	fb 12       	cpse	r15, r27
    2350:	f2 cf       	rjmp	.-28     	; 0x2336 <main+0x15da>
    2352:	0c 94 98 08 	jmp	0x1130	; 0x1130 <main+0x3d4>
								serialport_writeCarriage(&aDataSet);	
							}							
						} 
						else							// ask for a specific one
						{
							aDataSet.data = channel_data[0].minTemp[aDataSet.index-1];
    2356:	fe 01       	movw	r30, r28
    2358:	e8 0f       	add	r30, r24
    235a:	f1 1d       	adc	r31, r1
    235c:	87 a1       	ldd	r24, Z+39	; 0x27
    235e:	8c 83       	std	Y+4, r24	; 0x04
    2360:	1d 82       	std	Y+5, r1	; 0x05
							serialport_writeCarriage(&aDataSet);
    2362:	ce 01       	movw	r24, r28
    2364:	01 96       	adiw	r24, 0x01	; 1
    2366:	0e 94 aa 19 	call	0x3354	; 0x3354 <serialport_writeCarriage>
    236a:	0c 94 98 08 	jmp	0x1130	; 0x1130 <main+0x3d4>
						}					
						break;
						
					case 21:
						if (aDataSet.index == 0)		// ask for all of them
    236e:	8b 81       	ldd	r24, Y+3	; 0x03
    2370:	81 11       	cpse	r24, r1
    2372:	17 c0       	rjmp	.+46     	; 0x23a2 <main+0x1646>
    2374:	08 e2       	ldi	r16, 0x28	; 40
    2376:	10 e0       	ldi	r17, 0x00	; 0
    2378:	0c 0f       	add	r16, r28
    237a:	1d 1f       	adc	r17, r29
    237c:	08 5e       	subi	r16, 0xE8	; 232
    237e:	1f 4f       	sbci	r17, 0xFF	; 255
    2380:	f1 2c       	mov	r15, r1
						{
							for (i=0;i<24;i++)
							{
								aDataSet.index = i+1;
    2382:	f3 94       	inc	r15
    2384:	fb 82       	std	Y+3, r15	; 0x03
								aDataSet.data = channel_data[0].maxTemp[i];
    2386:	f8 01       	movw	r30, r16
    2388:	81 91       	ld	r24, Z+
    238a:	8f 01       	movw	r16, r30
    238c:	8c 83       	std	Y+4, r24	; 0x04
    238e:	1d 82       	std	Y+5, r1	; 0x05
								serialport_writeCarriage(&aDataSet);
    2390:	ce 01       	movw	r24, r28
    2392:	01 96       	adiw	r24, 0x01	; 1
    2394:	0e 94 aa 19 	call	0x3354	; 0x3354 <serialport_writeCarriage>
						break;
						
					case 21:
						if (aDataSet.index == 0)		// ask for all of them
						{
							for (i=0;i<24;i++)
    2398:	f8 e1       	ldi	r31, 0x18	; 24
    239a:	ff 12       	cpse	r15, r31
    239c:	f2 cf       	rjmp	.-28     	; 0x2382 <main+0x1626>
    239e:	0c 94 98 08 	jmp	0x1130	; 0x1130 <main+0x3d4>
								serialport_writeCarriage(&aDataSet);
							}
						}
						else							// ask for a specific one
						{
							aDataSet.data = channel_data[0].maxTemp[aDataSet.index-1];
    23a2:	fe 01       	movw	r30, r28
    23a4:	e8 0f       	add	r30, r24
    23a6:	f1 1d       	adc	r31, r1
    23a8:	87 ad       	ldd	r24, Z+63	; 0x3f
    23aa:	8c 83       	std	Y+4, r24	; 0x04
    23ac:	1d 82       	std	Y+5, r1	; 0x05
							serialport_writeCarriage(&aDataSet);
    23ae:	ce 01       	movw	r24, r28
    23b0:	01 96       	adiw	r24, 0x01	; 1
    23b2:	0e 94 aa 19 	call	0x3354	; 0x3354 <serialport_writeCarriage>
    23b6:	0c 94 98 08 	jmp	0x1130	; 0x1130 <main+0x3d4>
						}
						break;
					
					case 12:
						if (aDataSet.index == 0)		// ask for all of them
    23ba:	8b 81       	ldd	r24, Y+3	; 0x03
    23bc:	81 11       	cpse	r24, r1
    23be:	17 c0       	rjmp	.+46     	; 0x23ee <main+0x1692>
    23c0:	08 e2       	ldi	r16, 0x28	; 40
    23c2:	10 e0       	ldi	r17, 0x00	; 0
    23c4:	0c 0f       	add	r16, r28
    23c6:	1d 1f       	adc	r17, r29
    23c8:	0a 5c       	subi	r16, 0xCA	; 202
    23ca:	1f 4f       	sbci	r17, 0xFF	; 255
    23cc:	f1 2c       	mov	r15, r1
						{
							for (i=0;i<24;i++)
							{
								aDataSet.index = i+1;
    23ce:	f3 94       	inc	r15
    23d0:	fb 82       	std	Y+3, r15	; 0x03
								aDataSet.data = channel_data[1].minTemp[i];
    23d2:	d8 01       	movw	r26, r16
    23d4:	8d 91       	ld	r24, X+
    23d6:	8d 01       	movw	r16, r26
    23d8:	8c 83       	std	Y+4, r24	; 0x04
    23da:	1d 82       	std	Y+5, r1	; 0x05
								serialport_writeCarriage(&aDataSet);
    23dc:	ce 01       	movw	r24, r28
    23de:	01 96       	adiw	r24, 0x01	; 1
    23e0:	0e 94 aa 19 	call	0x3354	; 0x3354 <serialport_writeCarriage>
						break;
					
					case 12:
						if (aDataSet.index == 0)		// ask for all of them
						{
							for (i=0;i<24;i++)
    23e4:	b8 e1       	ldi	r27, 0x18	; 24
    23e6:	fb 12       	cpse	r15, r27
    23e8:	f2 cf       	rjmp	.-28     	; 0x23ce <main+0x1672>
    23ea:	0c 94 98 08 	jmp	0x1130	; 0x1130 <main+0x3d4>
								serialport_writeCarriage(&aDataSet);
							}
						}
						else							// ask for a specific one
						{
							aDataSet.data = channel_data[1].minTemp[aDataSet.index-1];
    23ee:	ed e5       	ldi	r30, 0x5D	; 93
    23f0:	f0 e0       	ldi	r31, 0x00	; 0
    23f2:	ec 0f       	add	r30, r28
    23f4:	fd 1f       	adc	r31, r29
    23f6:	e8 0f       	add	r30, r24
    23f8:	f1 1d       	adc	r31, r1
    23fa:	80 81       	ld	r24, Z
    23fc:	8c 83       	std	Y+4, r24	; 0x04
    23fe:	1d 82       	std	Y+5, r1	; 0x05
							serialport_writeCarriage(&aDataSet);
    2400:	ce 01       	movw	r24, r28
    2402:	01 96       	adiw	r24, 0x01	; 1
    2404:	0e 94 aa 19 	call	0x3354	; 0x3354 <serialport_writeCarriage>
    2408:	0c 94 98 08 	jmp	0x1130	; 0x1130 <main+0x3d4>
						}
						break;
						
					case 22:
						if (aDataSet.index == 0)		// ask for all of them
    240c:	8b 81       	ldd	r24, Y+3	; 0x03
    240e:	81 11       	cpse	r24, r1
    2410:	14 c0       	rjmp	.+40     	; 0x243a <main+0x16de>
    2412:	8e 01       	movw	r16, r28
    2414:	0a 58       	subi	r16, 0x8A	; 138
    2416:	1f 4f       	sbci	r17, 0xFF	; 255
    2418:	f1 2c       	mov	r15, r1
						{
							for (i=0;i<24;i++)
							{
								aDataSet.index = i+1;
    241a:	f3 94       	inc	r15
    241c:	fb 82       	std	Y+3, r15	; 0x03
								aDataSet.data = channel_data[1].maxTemp[i];
    241e:	f8 01       	movw	r30, r16
    2420:	81 91       	ld	r24, Z+
    2422:	8f 01       	movw	r16, r30
    2424:	8c 83       	std	Y+4, r24	; 0x04
    2426:	1d 82       	std	Y+5, r1	; 0x05
								serialport_writeCarriage(&aDataSet);
    2428:	ce 01       	movw	r24, r28
    242a:	01 96       	adiw	r24, 0x01	; 1
    242c:	0e 94 aa 19 	call	0x3354	; 0x3354 <serialport_writeCarriage>
						break;
						
					case 22:
						if (aDataSet.index == 0)		// ask for all of them
						{
							for (i=0;i<24;i++)
    2430:	f8 e1       	ldi	r31, 0x18	; 24
    2432:	ff 12       	cpse	r15, r31
    2434:	f2 cf       	rjmp	.-28     	; 0x241a <main+0x16be>
    2436:	0c 94 98 08 	jmp	0x1130	; 0x1130 <main+0x3d4>
								serialport_writeCarriage(&aDataSet);
							}
						}
						else							// ask for a specific one
						{
							aDataSet.data = channel_data[1].maxTemp[aDataSet.index-1];
    243a:	e5 e7       	ldi	r30, 0x75	; 117
    243c:	f0 e0       	ldi	r31, 0x00	; 0
    243e:	ec 0f       	add	r30, r28
    2440:	fd 1f       	adc	r31, r29
    2442:	e8 0f       	add	r30, r24
    2444:	f1 1d       	adc	r31, r1
    2446:	80 81       	ld	r24, Z
    2448:	8c 83       	std	Y+4, r24	; 0x04
    244a:	1d 82       	std	Y+5, r1	; 0x05
							serialport_writeCarriage(&aDataSet);
    244c:	ce 01       	movw	r24, r28
    244e:	01 96       	adiw	r24, 0x01	; 1
    2450:	0e 94 aa 19 	call	0x3354	; 0x3354 <serialport_writeCarriage>
    2454:	0c 94 98 08 	jmp	0x1130	; 0x1130 <main+0x3d4>
						}
						break;
					
					case 13:
						if (aDataSet.index == 0)		// ask for all of them
    2458:	8b 81       	ldd	r24, Y+3	; 0x03
    245a:	81 11       	cpse	r24, r1
    245c:	14 c0       	rjmp	.+40     	; 0x2486 <main+0x172a>
    245e:	8e 01       	movw	r16, r28
    2460:	0c 56       	subi	r16, 0x6C	; 108
    2462:	1f 4f       	sbci	r17, 0xFF	; 255
    2464:	f1 2c       	mov	r15, r1
						{
							for (i=0;i<24;i++)
							{
								aDataSet.index = i+1;
    2466:	f3 94       	inc	r15
    2468:	fb 82       	std	Y+3, r15	; 0x03
								aDataSet.data = channel_data[2].minTemp[i];
    246a:	d8 01       	movw	r26, r16
    246c:	8d 91       	ld	r24, X+
    246e:	8d 01       	movw	r16, r26
    2470:	8c 83       	std	Y+4, r24	; 0x04
    2472:	1d 82       	std	Y+5, r1	; 0x05
								serialport_writeCarriage(&aDataSet);
    2474:	ce 01       	movw	r24, r28
    2476:	01 96       	adiw	r24, 0x01	; 1
    2478:	0e 94 aa 19 	call	0x3354	; 0x3354 <serialport_writeCarriage>
						break;
					
					case 13:
						if (aDataSet.index == 0)		// ask for all of them
						{
							for (i=0;i<24;i++)
    247c:	b8 e1       	ldi	r27, 0x18	; 24
    247e:	fb 12       	cpse	r15, r27
    2480:	f2 cf       	rjmp	.-28     	; 0x2466 <main+0x170a>
    2482:	0c 94 98 08 	jmp	0x1130	; 0x1130 <main+0x3d4>
								serialport_writeCarriage(&aDataSet);
							}
						}
						else							// ask for a specific one
						{
							aDataSet.data = channel_data[2].minTemp[aDataSet.index-1];
    2486:	e3 e9       	ldi	r30, 0x93	; 147
    2488:	f0 e0       	ldi	r31, 0x00	; 0
    248a:	ec 0f       	add	r30, r28
    248c:	fd 1f       	adc	r31, r29
    248e:	e8 0f       	add	r30, r24
    2490:	f1 1d       	adc	r31, r1
    2492:	80 81       	ld	r24, Z
    2494:	8c 83       	std	Y+4, r24	; 0x04
    2496:	1d 82       	std	Y+5, r1	; 0x05
							serialport_writeCarriage(&aDataSet);
    2498:	ce 01       	movw	r24, r28
    249a:	01 96       	adiw	r24, 0x01	; 1
    249c:	0e 94 aa 19 	call	0x3354	; 0x3354 <serialport_writeCarriage>
    24a0:	0c 94 98 08 	jmp	0x1130	; 0x1130 <main+0x3d4>
						}
						break;
						
					case 23:
						if (aDataSet.index == 0)		// ask for all of them
    24a4:	8b 81       	ldd	r24, Y+3	; 0x03
    24a6:	81 11       	cpse	r24, r1
    24a8:	14 c0       	rjmp	.+40     	; 0x24d2 <main+0x1776>
    24aa:	8e 01       	movw	r16, r28
    24ac:	04 55       	subi	r16, 0x54	; 84
    24ae:	1f 4f       	sbci	r17, 0xFF	; 255
    24b0:	f1 2c       	mov	r15, r1
						{
							for (i=0;i<24;i++)
							{
								aDataSet.index = i+1;
    24b2:	f3 94       	inc	r15
    24b4:	fb 82       	std	Y+3, r15	; 0x03
								aDataSet.data = channel_data[2].maxTemp[i];
    24b6:	f8 01       	movw	r30, r16
    24b8:	81 91       	ld	r24, Z+
    24ba:	8f 01       	movw	r16, r30
    24bc:	8c 83       	std	Y+4, r24	; 0x04
    24be:	1d 82       	std	Y+5, r1	; 0x05
								serialport_writeCarriage(&aDataSet);
    24c0:	ce 01       	movw	r24, r28
    24c2:	01 96       	adiw	r24, 0x01	; 1
    24c4:	0e 94 aa 19 	call	0x3354	; 0x3354 <serialport_writeCarriage>
						break;
						
					case 23:
						if (aDataSet.index == 0)		// ask for all of them
						{
							for (i=0;i<24;i++)
    24c8:	f8 e1       	ldi	r31, 0x18	; 24
    24ca:	ff 12       	cpse	r15, r31
    24cc:	f2 cf       	rjmp	.-28     	; 0x24b2 <main+0x1756>
    24ce:	0c 94 98 08 	jmp	0x1130	; 0x1130 <main+0x3d4>
								serialport_writeCarriage(&aDataSet);
							}
						}
						else							// ask for a specific one
						{
							aDataSet.data = channel_data[2].maxTemp[aDataSet.index-1];
    24d2:	eb ea       	ldi	r30, 0xAB	; 171
    24d4:	f0 e0       	ldi	r31, 0x00	; 0
    24d6:	ec 0f       	add	r30, r28
    24d8:	fd 1f       	adc	r31, r29
    24da:	e8 0f       	add	r30, r24
    24dc:	f1 1d       	adc	r31, r1
    24de:	80 81       	ld	r24, Z
    24e0:	8c 83       	std	Y+4, r24	; 0x04
    24e2:	1d 82       	std	Y+5, r1	; 0x05
							serialport_writeCarriage(&aDataSet);
    24e4:	ce 01       	movw	r24, r28
    24e6:	01 96       	adiw	r24, 0x01	; 1
    24e8:	0e 94 aa 19 	call	0x3354	; 0x3354 <serialport_writeCarriage>
    24ec:	0c 94 98 08 	jmp	0x1130	; 0x1130 <main+0x3d4>
						}
						break;
						
					case 14:
						if (aDataSet.index == 0)		// ask for all of them
    24f0:	8b 81       	ldd	r24, Y+3	; 0x03
    24f2:	81 11       	cpse	r24, r1
    24f4:	14 c0       	rjmp	.+40     	; 0x251e <main+0x17c2>
    24f6:	8e 01       	movw	r16, r28
    24f8:	06 53       	subi	r16, 0x36	; 54
    24fa:	1f 4f       	sbci	r17, 0xFF	; 255
    24fc:	f1 2c       	mov	r15, r1
						{
							for (i=0;i<24;i++)
							{
								aDataSet.index = i+1;
    24fe:	f3 94       	inc	r15
    2500:	fb 82       	std	Y+3, r15	; 0x03
								aDataSet.data = channel_data[3].minTemp[i];
    2502:	d8 01       	movw	r26, r16
    2504:	8d 91       	ld	r24, X+
    2506:	8d 01       	movw	r16, r26
    2508:	8c 83       	std	Y+4, r24	; 0x04
    250a:	1d 82       	std	Y+5, r1	; 0x05
								serialport_writeCarriage(&aDataSet);
    250c:	ce 01       	movw	r24, r28
    250e:	01 96       	adiw	r24, 0x01	; 1
    2510:	0e 94 aa 19 	call	0x3354	; 0x3354 <serialport_writeCarriage>
						break;
						
					case 14:
						if (aDataSet.index == 0)		// ask for all of them
						{
							for (i=0;i<24;i++)
    2514:	b8 e1       	ldi	r27, 0x18	; 24
    2516:	fb 12       	cpse	r15, r27
    2518:	f2 cf       	rjmp	.-28     	; 0x24fe <main+0x17a2>
    251a:	0c 94 98 08 	jmp	0x1130	; 0x1130 <main+0x3d4>
								serialport_writeCarriage(&aDataSet);
							}
						}
						else							// ask for a specific one
						{
							aDataSet.data = channel_data[3].minTemp[aDataSet.index-1];
    251e:	e9 ec       	ldi	r30, 0xC9	; 201
    2520:	f0 e0       	ldi	r31, 0x00	; 0
    2522:	ec 0f       	add	r30, r28
    2524:	fd 1f       	adc	r31, r29
    2526:	e8 0f       	add	r30, r24
    2528:	f1 1d       	adc	r31, r1
    252a:	80 81       	ld	r24, Z
    252c:	8c 83       	std	Y+4, r24	; 0x04
    252e:	1d 82       	std	Y+5, r1	; 0x05
							serialport_writeCarriage(&aDataSet);
    2530:	ce 01       	movw	r24, r28
    2532:	01 96       	adiw	r24, 0x01	; 1
    2534:	0e 94 aa 19 	call	0x3354	; 0x3354 <serialport_writeCarriage>
    2538:	0c 94 98 08 	jmp	0x1130	; 0x1130 <main+0x3d4>
						}
						break;
						
					case 24:
						if (aDataSet.index == 0)		// ask for all of them
    253c:	8b 81       	ldd	r24, Y+3	; 0x03
    253e:	81 11       	cpse	r24, r1
    2540:	14 c0       	rjmp	.+40     	; 0x256a <main+0x180e>
    2542:	8e 01       	movw	r16, r28
    2544:	0e 51       	subi	r16, 0x1E	; 30
    2546:	1f 4f       	sbci	r17, 0xFF	; 255
    2548:	f1 2c       	mov	r15, r1
						{
							for (i=0;i<24;i++)
							{
								aDataSet.index = i+1;
    254a:	f3 94       	inc	r15
    254c:	fb 82       	std	Y+3, r15	; 0x03
								aDataSet.data = channel_data[3].maxTemp[i];
    254e:	f8 01       	movw	r30, r16
    2550:	81 91       	ld	r24, Z+
    2552:	8f 01       	movw	r16, r30
    2554:	8c 83       	std	Y+4, r24	; 0x04
    2556:	1d 82       	std	Y+5, r1	; 0x05
								serialport_writeCarriage(&aDataSet);
    2558:	ce 01       	movw	r24, r28
    255a:	01 96       	adiw	r24, 0x01	; 1
    255c:	0e 94 aa 19 	call	0x3354	; 0x3354 <serialport_writeCarriage>
						break;
						
					case 24:
						if (aDataSet.index == 0)		// ask for all of them
						{
							for (i=0;i<24;i++)
    2560:	f8 e1       	ldi	r31, 0x18	; 24
    2562:	ff 12       	cpse	r15, r31
    2564:	f2 cf       	rjmp	.-28     	; 0x254a <main+0x17ee>
    2566:	0c 94 98 08 	jmp	0x1130	; 0x1130 <main+0x3d4>
								serialport_writeCarriage(&aDataSet);
							}
						}
						else							// ask for a specific one
						{
							aDataSet.data = channel_data[3].maxTemp[aDataSet.index-1];
    256a:	e1 ee       	ldi	r30, 0xE1	; 225
    256c:	f0 e0       	ldi	r31, 0x00	; 0
    256e:	ec 0f       	add	r30, r28
    2570:	fd 1f       	adc	r31, r29
    2572:	e8 0f       	add	r30, r24
    2574:	f1 1d       	adc	r31, r1
    2576:	80 81       	ld	r24, Z
    2578:	8c 83       	std	Y+4, r24	; 0x04
    257a:	1d 82       	std	Y+5, r1	; 0x05
							serialport_writeCarriage(&aDataSet);
    257c:	ce 01       	movw	r24, r28
    257e:	01 96       	adiw	r24, 0x01	; 1
    2580:	0e 94 aa 19 	call	0x3354	; 0x3354 <serialport_writeCarriage>
    2584:	0c 94 98 08 	jmp	0x1130	; 0x1130 <main+0x3d4>
						}
						break;
					
					case 31:
						if (aDataSet.index == 0)		// ask for all of them
    2588:	8b 81       	ldd	r24, Y+3	; 0x03
    258a:	81 11       	cpse	r24, r1
    258c:	17 c0       	rjmp	.+46     	; 0x25bc <main+0x1860>
    258e:	8e 01       	movw	r16, r28
    2590:	02 5e       	subi	r16, 0xE2	; 226
    2592:	1f 4f       	sbci	r17, 0xFF	; 255
    2594:	0f 2e       	mov	r0, r31
    2596:	f1 e1       	ldi	r31, 0x11	; 17
    2598:	ff 2e       	mov	r15, r31
    259a:	f0 2d       	mov	r31, r0
						{
							for (i=0;i<8;i++)
							{
								aDataSet.index = i+17;
    259c:	fb 82       	std	Y+3, r15	; 0x03
								aDataSet.data = spare_temperature[i];
    259e:	d8 01       	movw	r26, r16
    25a0:	8d 91       	ld	r24, X+
    25a2:	8d 01       	movw	r16, r26
    25a4:	8c 83       	std	Y+4, r24	; 0x04
    25a6:	1d 82       	std	Y+5, r1	; 0x05
								serialport_writeCarriage(&aDataSet);
    25a8:	ce 01       	movw	r24, r28
    25aa:	01 96       	adiw	r24, 0x01	; 1
    25ac:	0e 94 aa 19 	call	0x3354	; 0x3354 <serialport_writeCarriage>
    25b0:	f3 94       	inc	r15
						break;
					
					case 31:
						if (aDataSet.index == 0)		// ask for all of them
						{
							for (i=0;i<8;i++)
    25b2:	b9 e1       	ldi	r27, 0x19	; 25
    25b4:	fb 12       	cpse	r15, r27
    25b6:	f2 cf       	rjmp	.-28     	; 0x259c <main+0x1840>
    25b8:	0c 94 98 08 	jmp	0x1130	; 0x1130 <main+0x3d4>
								serialport_writeCarriage(&aDataSet);
							}
						}
						else							// ask for a specific one
						{
							aDataSet.data = spare_temperature[aDataSet.index-17];
    25bc:	fe 01       	movw	r30, r28
    25be:	e8 0f       	add	r30, r24
    25c0:	f1 1d       	adc	r31, r1
    25c2:	85 85       	ldd	r24, Z+13	; 0x0d
    25c4:	8c 83       	std	Y+4, r24	; 0x04
    25c6:	1d 82       	std	Y+5, r1	; 0x05
							serialport_writeCarriage(&aDataSet);
    25c8:	ce 01       	movw	r24, r28
    25ca:	01 96       	adiw	r24, 0x01	; 1
    25cc:	0e 94 aa 19 	call	0x3354	; 0x3354 <serialport_writeCarriage>
    25d0:	0c 94 98 08 	jmp	0x1130	; 0x1130 <main+0x3d4>
						}
						break;
					
					case 32:
						aDataSet.index = 1;
    25d4:	81 e0       	ldi	r24, 0x01	; 1
    25d6:	8b 83       	std	Y+3, r24	; 0x03
						aDataSet.data = tempSensor_getOneWireAmount();
    25d8:	0e 94 7e 1d 	call	0x3afc	; 0x3afc <tempSensor_getOneWireAmount>
    25dc:	8c 83       	std	Y+4, r24	; 0x04
    25de:	1d 82       	std	Y+5, r1	; 0x05
						serialport_writeCarriage(&aDataSet);
    25e0:	ce 01       	movw	r24, r28
    25e2:	01 96       	adiw	r24, 0x01	; 1
    25e4:	0e 94 aa 19 	call	0x3354	; 0x3354 <serialport_writeCarriage>
						break;
    25e8:	0c 94 98 08 	jmp	0x1130	; 0x1130 <main+0x3d4>
					
					case 33:
						if (aDataSet.index == 0)		// ask for all of them
    25ec:	8b 81       	ldd	r24, Y+3	; 0x03
    25ee:	88 23       	and	r24, r24
    25f0:	79 f0       	breq	.+30     	; 0x2610 <main+0x18b4>
    25f2:	1c c0       	rjmp	.+56     	; 0x262c <main+0x18d0>
						{
							for (i=0;i<(8*tempSensor_getOneWireAmount());i++)
							{
								aDataSet.index = i+1;
    25f4:	01 2f       	mov	r16, r17
    25f6:	0f 5f       	subi	r16, 0xFF	; 255
    25f8:	0b 83       	std	Y+3, r16	; 0x03
								aDataSet.data = tempSensor_getOneWireID(i);
    25fa:	81 2f       	mov	r24, r17
    25fc:	0e 94 81 1d 	call	0x3b02	; 0x3b02 <tempSensor_getOneWireID>
    2600:	8c 83       	std	Y+4, r24	; 0x04
    2602:	1d 82       	std	Y+5, r1	; 0x05
								serialport_writeCarriage(&aDataSet);
    2604:	ce 01       	movw	r24, r28
    2606:	01 96       	adiw	r24, 0x01	; 1
    2608:	0e 94 aa 19 	call	0x3354	; 0x3354 <serialport_writeCarriage>
						break;
					
					case 33:
						if (aDataSet.index == 0)		// ask for all of them
						{
							for (i=0;i<(8*tempSensor_getOneWireAmount());i++)
    260c:	10 2f       	mov	r17, r16
    260e:	01 c0       	rjmp	.+2      	; 0x2612 <main+0x18b6>
						aDataSet.data = tempSensor_getOneWireAmount();
						serialport_writeCarriage(&aDataSet);
						break;
					
					case 33:
						if (aDataSet.index == 0)		// ask for all of them
    2610:	10 e0       	ldi	r17, 0x00	; 0
						{
							for (i=0;i<(8*tempSensor_getOneWireAmount());i++)
    2612:	0e 94 7e 1d 	call	0x3afc	; 0x3afc <tempSensor_getOneWireAmount>
    2616:	21 2f       	mov	r18, r17
    2618:	30 e0       	ldi	r19, 0x00	; 0
    261a:	e8 e0       	ldi	r30, 0x08	; 8
    261c:	8e 9f       	mul	r24, r30
    261e:	c0 01       	movw	r24, r0
    2620:	11 24       	eor	r1, r1
    2622:	28 17       	cp	r18, r24
    2624:	39 07       	cpc	r19, r25
    2626:	34 f3       	brlt	.-52     	; 0x25f4 <main+0x1898>
    2628:	0c 94 98 08 	jmp	0x1130	; 0x1130 <main+0x3d4>
								serialport_writeCarriage(&aDataSet);
							}
						}
						else							// ask for a specific one
						{
							aDataSet.data = tempSensor_getOneWireID(aDataSet.index-1);
    262c:	81 50       	subi	r24, 0x01	; 1
    262e:	0e 94 81 1d 	call	0x3b02	; 0x3b02 <tempSensor_getOneWireID>
    2632:	8c 83       	std	Y+4, r24	; 0x04
    2634:	1d 82       	std	Y+5, r1	; 0x05
							serialport_writeCarriage(&aDataSet);
    2636:	ce 01       	movw	r24, r28
    2638:	01 96       	adiw	r24, 0x01	; 1
    263a:	0e 94 aa 19 	call	0x3354	; 0x3354 <serialport_writeCarriage>
    263e:	0c 94 98 08 	jmp	0x1130	; 0x1130 <main+0x3d4>
						}
						break;
					
					case 51:
						switch (aDataSet.index)
    2642:	8b 81       	ldd	r24, Y+3	; 0x03
    2644:	81 30       	cpi	r24, 0x01	; 1
    2646:	11 f1       	breq	.+68     	; 0x268c <main+0x1930>
    2648:	28 f0       	brcs	.+10     	; 0x2654 <main+0x18f8>
    264a:	82 30       	cpi	r24, 0x02	; 2
    264c:	11 f0       	breq	.+4      	; 0x2652 <main+0x18f6>
    264e:	0c 94 98 08 	jmp	0x1130	; 0x1130 <main+0x3d4>
    2652:	29 c0       	rjmp	.+82     	; 0x26a6 <main+0x194a>
						{
							case 0:
								aDataSet.index = 1;
    2654:	81 e0       	ldi	r24, 0x01	; 1
    2656:	8b 83       	std	Y+3, r24	; 0x03
								aDataSet.data = alert_data.overtempEnable;
    2658:	c8 5e       	subi	r28, 0xE8	; 232
    265a:	de 4f       	sbci	r29, 0xFE	; 254
    265c:	88 81       	ld	r24, Y
    265e:	c8 51       	subi	r28, 0x18	; 24
    2660:	d1 40       	sbci	r29, 0x01	; 1
    2662:	8c 83       	std	Y+4, r24	; 0x04
    2664:	1d 82       	std	Y+5, r1	; 0x05
								serialport_writeCarriage(&aDataSet);
    2666:	ce 01       	movw	r24, r28
    2668:	01 96       	adiw	r24, 0x01	; 1
    266a:	0e 94 aa 19 	call	0x3354	; 0x3354 <serialport_writeCarriage>
								aDataSet.index = 2;
    266e:	82 e0       	ldi	r24, 0x02	; 2
    2670:	8b 83       	std	Y+3, r24	; 0x03
								aDataSet.data = alert_data.fanblockEnable;
    2672:	c7 5e       	subi	r28, 0xE7	; 231
    2674:	de 4f       	sbci	r29, 0xFE	; 254
    2676:	88 81       	ld	r24, Y
    2678:	c9 51       	subi	r28, 0x19	; 25
    267a:	d1 40       	sbci	r29, 0x01	; 1
    267c:	8c 83       	std	Y+4, r24	; 0x04
    267e:	1d 82       	std	Y+5, r1	; 0x05
								serialport_writeCarriage(&aDataSet);
    2680:	ce 01       	movw	r24, r28
    2682:	01 96       	adiw	r24, 0x01	; 1
    2684:	0e 94 aa 19 	call	0x3354	; 0x3354 <serialport_writeCarriage>
								break;
    2688:	0c 94 98 08 	jmp	0x1130	; 0x1130 <main+0x3d4>
								
							case 1:
								aDataSet.data = alert_data.overtempEnable;
    268c:	c8 5e       	subi	r28, 0xE8	; 232
    268e:	de 4f       	sbci	r29, 0xFE	; 254
    2690:	88 81       	ld	r24, Y
    2692:	c8 51       	subi	r28, 0x18	; 24
    2694:	d1 40       	sbci	r29, 0x01	; 1
    2696:	8c 83       	std	Y+4, r24	; 0x04
    2698:	1d 82       	std	Y+5, r1	; 0x05
								serialport_writeCarriage(&aDataSet);
    269a:	ce 01       	movw	r24, r28
    269c:	01 96       	adiw	r24, 0x01	; 1
    269e:	0e 94 aa 19 	call	0x3354	; 0x3354 <serialport_writeCarriage>
								break;
    26a2:	0c 94 98 08 	jmp	0x1130	; 0x1130 <main+0x3d4>
								
							case 2:
								aDataSet.data = alert_data.fanblockEnable;
    26a6:	c7 5e       	subi	r28, 0xE7	; 231
    26a8:	de 4f       	sbci	r29, 0xFE	; 254
    26aa:	88 81       	ld	r24, Y
    26ac:	c9 51       	subi	r28, 0x19	; 25
    26ae:	d1 40       	sbci	r29, 0x01	; 1
    26b0:	8c 83       	std	Y+4, r24	; 0x04
    26b2:	1d 82       	std	Y+5, r1	; 0x05
								serialport_writeCarriage(&aDataSet);
    26b4:	ce 01       	movw	r24, r28
    26b6:	01 96       	adiw	r24, 0x01	; 1
    26b8:	0e 94 aa 19 	call	0x3354	; 0x3354 <serialport_writeCarriage>
								break;			
    26bc:	0c 94 98 08 	jmp	0x1130	; 0x1130 <main+0x3d4>
						}
						break;
					
					case 70:
						switch (aDataSet.index)
    26c0:	8b 81       	ldd	r24, Y+3	; 0x03
    26c2:	81 30       	cpi	r24, 0x01	; 1
    26c4:	21 f1       	breq	.+72     	; 0x270e <main+0x19b2>
    26c6:	28 f0       	brcs	.+10     	; 0x26d2 <main+0x1976>
    26c8:	82 30       	cpi	r24, 0x02	; 2
    26ca:	11 f0       	breq	.+4      	; 0x26d0 <main+0x1974>
    26cc:	0c 94 98 08 	jmp	0x1130	; 0x1130 <main+0x3d4>
    26d0:	2c c0       	rjmp	.+88     	; 0x272a <main+0x19ce>
						{
							case 0:
								aDataSet.index = 1;
    26d2:	81 e0       	ldi	r24, 0x01	; 1
    26d4:	8b 83       	std	Y+3, r24	; 0x03
								aDataSet.data = pulsePerLiter;
    26d6:	c3 58       	subi	r28, 0x83	; 131
    26d8:	dd 4f       	sbci	r29, 0xFD	; 253
    26da:	28 81       	ld	r18, Y
    26dc:	39 81       	ldd	r19, Y+1	; 0x01
    26de:	cd 57       	subi	r28, 0x7D	; 125
    26e0:	d2 40       	sbci	r29, 0x02	; 2
    26e2:	2c 83       	std	Y+4, r18	; 0x04
    26e4:	3d 83       	std	Y+5, r19	; 0x05
								serialport_writeCarriage(&aDataSet);
    26e6:	ce 01       	movw	r24, r28
    26e8:	01 96       	adiw	r24, 0x01	; 1
    26ea:	0e 94 aa 19 	call	0x3354	; 0x3354 <serialport_writeCarriage>
								aDataSet.index = 2;
    26ee:	82 e0       	ldi	r24, 0x02	; 2
    26f0:	8b 83       	std	Y+3, r24	; 0x03
								aDataSet.data = alert_data.minWaterFlow;
    26f2:	c6 5e       	subi	r28, 0xE6	; 230
    26f4:	de 4f       	sbci	r29, 0xFE	; 254
    26f6:	88 81       	ld	r24, Y
    26f8:	99 81       	ldd	r25, Y+1	; 0x01
    26fa:	ca 51       	subi	r28, 0x1A	; 26
    26fc:	d1 40       	sbci	r29, 0x01	; 1
    26fe:	8c 83       	std	Y+4, r24	; 0x04
    2700:	9d 83       	std	Y+5, r25	; 0x05
								serialport_writeCarriage(&aDataSet);
    2702:	ce 01       	movw	r24, r28
    2704:	01 96       	adiw	r24, 0x01	; 1
    2706:	0e 94 aa 19 	call	0x3354	; 0x3354 <serialport_writeCarriage>
								break;
    270a:	0c 94 98 08 	jmp	0x1130	; 0x1130 <main+0x3d4>
							
							case 1:
								aDataSet.data = pulsePerLiter;
    270e:	c3 58       	subi	r28, 0x83	; 131
    2710:	dd 4f       	sbci	r29, 0xFD	; 253
    2712:	88 81       	ld	r24, Y
    2714:	99 81       	ldd	r25, Y+1	; 0x01
    2716:	cd 57       	subi	r28, 0x7D	; 125
    2718:	d2 40       	sbci	r29, 0x02	; 2
    271a:	8c 83       	std	Y+4, r24	; 0x04
    271c:	9d 83       	std	Y+5, r25	; 0x05
								serialport_writeCarriage(&aDataSet);
    271e:	ce 01       	movw	r24, r28
    2720:	01 96       	adiw	r24, 0x01	; 1
    2722:	0e 94 aa 19 	call	0x3354	; 0x3354 <serialport_writeCarriage>
								break;
    2726:	0c 94 98 08 	jmp	0x1130	; 0x1130 <main+0x3d4>
							
							case 2:
								aDataSet.data = alert_data.minWaterFlow;
    272a:	c6 5e       	subi	r28, 0xE6	; 230
    272c:	de 4f       	sbci	r29, 0xFE	; 254
    272e:	88 81       	ld	r24, Y
    2730:	99 81       	ldd	r25, Y+1	; 0x01
    2732:	ca 51       	subi	r28, 0x1A	; 26
    2734:	d1 40       	sbci	r29, 0x01	; 1
    2736:	8c 83       	std	Y+4, r24	; 0x04
    2738:	9d 83       	std	Y+5, r25	; 0x05
								serialport_writeCarriage(&aDataSet);
    273a:	ce 01       	movw	r24, r28
    273c:	01 96       	adiw	r24, 0x01	; 1
    273e:	0e 94 aa 19 	call	0x3354	; 0x3354 <serialport_writeCarriage>
								break;
    2742:	0c 94 98 08 	jmp	0x1130	; 0x1130 <main+0x3d4>
						}
						break;
					
					case 71:
						if (aDataSet.index == 0)		// ask for all of them
    2746:	8b 81       	ldd	r24, Y+3	; 0x03
    2748:	81 11       	cpse	r24, r1
    274a:	19 c0       	rjmp	.+50     	; 0x277e <main+0x1a22>
    274c:	10 e0       	ldi	r17, 0x00	; 0
						{
							for (i=0;i<4;i++)
							{
								aDataSet.index = i+1;
								aDataSet.data = channel_data[i].manualPower;
								serialport_writeCarriage(&aDataSet);
    274e:	f1 2e       	mov	r15, r17
    2750:	c0 59       	subi	r28, 0x90	; 144
    2752:	dd 4f       	sbci	r29, 0xFD	; 253
    2754:	08 81       	ld	r16, Y
    2756:	19 81       	ldd	r17, Y+1	; 0x01
    2758:	c0 57       	subi	r28, 0x70	; 112
    275a:	d2 40       	sbci	r29, 0x02	; 2
					case 71:
						if (aDataSet.index == 0)		// ask for all of them
						{
							for (i=0;i<4;i++)
							{
								aDataSet.index = i+1;
    275c:	f3 94       	inc	r15
    275e:	fb 82       	std	Y+3, r15	; 0x03
								aDataSet.data = channel_data[i].manualPower;
    2760:	d8 01       	movw	r26, r16
    2762:	8c 91       	ld	r24, X
    2764:	8c 83       	std	Y+4, r24	; 0x04
    2766:	1d 82       	std	Y+5, r1	; 0x05
								serialport_writeCarriage(&aDataSet);
    2768:	ce 01       	movw	r24, r28
    276a:	01 96       	adiw	r24, 0x01	; 1
    276c:	0e 94 aa 19 	call	0x3354	; 0x3354 <serialport_writeCarriage>
    2770:	0a 5c       	subi	r16, 0xCA	; 202
    2772:	1f 4f       	sbci	r17, 0xFF	; 255
						break;
					
					case 71:
						if (aDataSet.index == 0)		// ask for all of them
						{
							for (i=0;i<4;i++)
    2774:	b4 e0       	ldi	r27, 0x04	; 4
    2776:	fb 12       	cpse	r15, r27
    2778:	f1 cf       	rjmp	.-30     	; 0x275c <main+0x1a00>
    277a:	0c 94 98 08 	jmp	0x1130	; 0x1130 <main+0x3d4>
								serialport_writeCarriage(&aDataSet);
							}
						}
						else							// ask for a specific one
						{
							aDataSet.data = channel_data[aDataSet.index-1].manualPower;
    277e:	90 e0       	ldi	r25, 0x00	; 0
    2780:	01 97       	sbiw	r24, 0x01	; 1
    2782:	26 e3       	ldi	r18, 0x36	; 54
    2784:	28 9f       	mul	r18, r24
    2786:	f0 01       	movw	r30, r0
    2788:	29 9f       	mul	r18, r25
    278a:	f0 0d       	add	r31, r0
    278c:	11 24       	eor	r1, r1
    278e:	21 e0       	ldi	r18, 0x01	; 1
    2790:	30 e0       	ldi	r19, 0x00	; 0
    2792:	2c 0f       	add	r18, r28
    2794:	3d 1f       	adc	r19, r29
    2796:	e2 0f       	add	r30, r18
    2798:	f3 1f       	adc	r31, r19
    279a:	e9 5a       	subi	r30, 0xA9	; 169
    279c:	ff 4f       	sbci	r31, 0xFF	; 255
    279e:	80 81       	ld	r24, Z
    27a0:	8c 83       	std	Y+4, r24	; 0x04
    27a2:	1d 82       	std	Y+5, r1	; 0x05
							serialport_writeCarriage(&aDataSet);
    27a4:	c9 01       	movw	r24, r18
    27a6:	0e 94 aa 19 	call	0x3354	; 0x3354 <serialport_writeCarriage>
    27aa:	0c 94 98 08 	jmp	0x1130	; 0x1130 <main+0x3d4>
						}
						break;
						
					case 72:
						if (aDataSet.index == 0)		// ask for all of them
    27ae:	8b 81       	ldd	r24, Y+3	; 0x03
    27b0:	81 11       	cpse	r24, r1
    27b2:	18 c0       	rjmp	.+48     	; 0x27e4 <main+0x1a88>
    27b4:	c3 5a       	subi	r28, 0xA3	; 163
    27b6:	dd 4f       	sbci	r29, 0xFD	; 253
    27b8:	08 81       	ld	r16, Y
    27ba:	19 81       	ldd	r17, Y+1	; 0x01
    27bc:	cd 55       	subi	r28, 0x5D	; 93
    27be:	d2 40       	sbci	r29, 0x02	; 2
    27c0:	f1 2c       	mov	r15, r1
						{
							for (i=0;i<4;i++)
							{
								aDataSet.index = i+1;
    27c2:	f3 94       	inc	r15
    27c4:	fb 82       	std	Y+3, r15	; 0x03
								aDataSet.data = channel_data[i].startupTime;
    27c6:	d8 01       	movw	r26, r16
    27c8:	8c 91       	ld	r24, X
    27ca:	8c 83       	std	Y+4, r24	; 0x04
    27cc:	1d 82       	std	Y+5, r1	; 0x05
								serialport_writeCarriage(&aDataSet);
    27ce:	ce 01       	movw	r24, r28
    27d0:	01 96       	adiw	r24, 0x01	; 1
    27d2:	0e 94 aa 19 	call	0x3354	; 0x3354 <serialport_writeCarriage>
    27d6:	0a 5c       	subi	r16, 0xCA	; 202
    27d8:	1f 4f       	sbci	r17, 0xFF	; 255
						break;
						
					case 72:
						if (aDataSet.index == 0)		// ask for all of them
						{
							for (i=0;i<4;i++)
    27da:	b4 e0       	ldi	r27, 0x04	; 4
    27dc:	fb 12       	cpse	r15, r27
    27de:	f1 cf       	rjmp	.-30     	; 0x27c2 <main+0x1a66>
    27e0:	0c 94 98 08 	jmp	0x1130	; 0x1130 <main+0x3d4>
								serialport_writeCarriage(&aDataSet);
							}
						}
						else							// ask for a specific one
						{
							aDataSet.data = channel_data[aDataSet.index-1].startupTime;
    27e4:	90 e0       	ldi	r25, 0x00	; 0
    27e6:	01 97       	sbiw	r24, 0x01	; 1
    27e8:	26 e3       	ldi	r18, 0x36	; 54
    27ea:	28 9f       	mul	r18, r24
    27ec:	f0 01       	movw	r30, r0
    27ee:	29 9f       	mul	r18, r25
    27f0:	f0 0d       	add	r31, r0
    27f2:	11 24       	eor	r1, r1
    27f4:	21 e0       	ldi	r18, 0x01	; 1
    27f6:	30 e0       	ldi	r19, 0x00	; 0
    27f8:	2c 0f       	add	r18, r28
    27fa:	3d 1f       	adc	r19, r29
    27fc:	e2 0f       	add	r30, r18
    27fe:	f3 1f       	adc	r31, r19
    2800:	e7 5a       	subi	r30, 0xA7	; 167
    2802:	ff 4f       	sbci	r31, 0xFF	; 255
    2804:	80 81       	ld	r24, Z
    2806:	8c 83       	std	Y+4, r24	; 0x04
    2808:	1d 82       	std	Y+5, r1	; 0x05
							serialport_writeCarriage(&aDataSet);
    280a:	c9 01       	movw	r24, r18
    280c:	0e 94 aa 19 	call	0x3354	; 0x3354 <serialport_writeCarriage>
    2810:	0c 94 98 08 	jmp	0x1130	; 0x1130 <main+0x3d4>
						}
						break;
					
					case 73:
						if (aDataSet.index == 0)		// ask for all of them
    2814:	8b 81       	ldd	r24, Y+3	; 0x03
    2816:	81 11       	cpse	r24, r1
    2818:	18 c0       	rjmp	.+48     	; 0x284a <main+0x1aee>
    281a:	08 e2       	ldi	r16, 0x28	; 40
    281c:	10 e0       	ldi	r17, 0x00	; 0
    281e:	0c 0f       	add	r16, r28
    2820:	1d 1f       	adc	r17, r29
    2822:	0f 5c       	subi	r16, 0xCF	; 207
    2824:	1f 4f       	sbci	r17, 0xFF	; 255
    2826:	f1 2c       	mov	r15, r1
						{
							for (i=0;i<4;i++)
							{
								aDataSet.index = i+1;
    2828:	f3 94       	inc	r15
    282a:	fb 82       	std	Y+3, r15	; 0x03
								aDataSet.data = channel_data[i].minimumPower;
    282c:	d8 01       	movw	r26, r16
    282e:	8c 91       	ld	r24, X
    2830:	8c 83       	std	Y+4, r24	; 0x04
    2832:	1d 82       	std	Y+5, r1	; 0x05
								serialport_writeCarriage(&aDataSet);
    2834:	ce 01       	movw	r24, r28
    2836:	01 96       	adiw	r24, 0x01	; 1
    2838:	0e 94 aa 19 	call	0x3354	; 0x3354 <serialport_writeCarriage>
    283c:	0a 5c       	subi	r16, 0xCA	; 202
    283e:	1f 4f       	sbci	r17, 0xFF	; 255
						break;
					
					case 73:
						if (aDataSet.index == 0)		// ask for all of them
						{
							for (i=0;i<4;i++)
    2840:	b4 e0       	ldi	r27, 0x04	; 4
    2842:	fb 12       	cpse	r15, r27
    2844:	f1 cf       	rjmp	.-30     	; 0x2828 <main+0x1acc>
    2846:	0c 94 98 08 	jmp	0x1130	; 0x1130 <main+0x3d4>
								serialport_writeCarriage(&aDataSet);
							}
						}
						else							// ask for a specific one
						{
							aDataSet.data = channel_data[aDataSet.index-1].minimumPower;
    284a:	90 e0       	ldi	r25, 0x00	; 0
    284c:	01 97       	sbiw	r24, 0x01	; 1
    284e:	26 e3       	ldi	r18, 0x36	; 54
    2850:	28 9f       	mul	r18, r24
    2852:	f0 01       	movw	r30, r0
    2854:	29 9f       	mul	r18, r25
    2856:	f0 0d       	add	r31, r0
    2858:	11 24       	eor	r1, r1
    285a:	21 e0       	ldi	r18, 0x01	; 1
    285c:	30 e0       	ldi	r19, 0x00	; 0
    285e:	2c 0f       	add	r18, r28
    2860:	3d 1f       	adc	r19, r29
    2862:	e2 0f       	add	r30, r18
    2864:	f3 1f       	adc	r31, r19
    2866:	e8 5a       	subi	r30, 0xA8	; 168
    2868:	ff 4f       	sbci	r31, 0xFF	; 255
    286a:	80 81       	ld	r24, Z
    286c:	8c 83       	std	Y+4, r24	; 0x04
    286e:	1d 82       	std	Y+5, r1	; 0x05
							serialport_writeCarriage(&aDataSet);
    2870:	c9 01       	movw	r24, r18
    2872:	0e 94 aa 19 	call	0x3354	; 0x3354 <serialport_writeCarriage>
    2876:	0c 94 98 08 	jmp	0x1130	; 0x1130 <main+0x3d4>
						}
						break;
						
					case 74:
						if (aDataSet.index == 0)		// ask for all of them
    287a:	8b 81       	ldd	r24, Y+3	; 0x03
    287c:	81 11       	cpse	r24, r1
    287e:	18 c0       	rjmp	.+48     	; 0x28b0 <main+0x1b54>
    2880:	08 e2       	ldi	r16, 0x28	; 40
    2882:	10 e0       	ldi	r17, 0x00	; 0
    2884:	0c 0f       	add	r16, r28
    2886:	1d 1f       	adc	r17, r29
    2888:	0d 5c       	subi	r16, 0xCD	; 205
    288a:	1f 4f       	sbci	r17, 0xFF	; 255
    288c:	f1 2c       	mov	r15, r1
						{
							for (i=0;i<4;i++)
							{
								aDataSet.index = i+1;
    288e:	f3 94       	inc	r15
    2890:	fb 82       	std	Y+3, r15	; 0x03
								aDataSet.data = channel_data[i].automaticMode;
    2892:	d8 01       	movw	r26, r16
    2894:	8c 91       	ld	r24, X
    2896:	8c 83       	std	Y+4, r24	; 0x04
    2898:	1d 82       	std	Y+5, r1	; 0x05
								serialport_writeCarriage(&aDataSet);
    289a:	ce 01       	movw	r24, r28
    289c:	01 96       	adiw	r24, 0x01	; 1
    289e:	0e 94 aa 19 	call	0x3354	; 0x3354 <serialport_writeCarriage>
    28a2:	0a 5c       	subi	r16, 0xCA	; 202
    28a4:	1f 4f       	sbci	r17, 0xFF	; 255
						break;
						
					case 74:
						if (aDataSet.index == 0)		// ask for all of them
						{
							for (i=0;i<4;i++)
    28a6:	b4 e0       	ldi	r27, 0x04	; 4
    28a8:	fb 12       	cpse	r15, r27
    28aa:	f1 cf       	rjmp	.-30     	; 0x288e <main+0x1b32>
    28ac:	0c 94 98 08 	jmp	0x1130	; 0x1130 <main+0x3d4>
								serialport_writeCarriage(&aDataSet);
							}
						}
						else							// ask for a specific one
						{
							aDataSet.data = channel_data[aDataSet.index-1].automaticMode;
    28b0:	90 e0       	ldi	r25, 0x00	; 0
    28b2:	01 97       	sbiw	r24, 0x01	; 1
    28b4:	26 e3       	ldi	r18, 0x36	; 54
    28b6:	28 9f       	mul	r18, r24
    28b8:	f0 01       	movw	r30, r0
    28ba:	29 9f       	mul	r18, r25
    28bc:	f0 0d       	add	r31, r0
    28be:	11 24       	eor	r1, r1
    28c0:	21 e0       	ldi	r18, 0x01	; 1
    28c2:	30 e0       	ldi	r19, 0x00	; 0
    28c4:	2c 0f       	add	r18, r28
    28c6:	3d 1f       	adc	r19, r29
    28c8:	e2 0f       	add	r30, r18
    28ca:	f3 1f       	adc	r31, r19
    28cc:	e6 5a       	subi	r30, 0xA6	; 166
    28ce:	ff 4f       	sbci	r31, 0xFF	; 255
    28d0:	80 81       	ld	r24, Z
    28d2:	8c 83       	std	Y+4, r24	; 0x04
    28d4:	1d 82       	std	Y+5, r1	; 0x05
							serialport_writeCarriage(&aDataSet);
    28d6:	c9 01       	movw	r24, r18
    28d8:	0e 94 aa 19 	call	0x3354	; 0x3354 <serialport_writeCarriage>
    28dc:	0c 94 98 08 	jmp	0x1130	; 0x1130 <main+0x3d4>
						}
						break;
						
					case 75:
						if (aDataSet.index == 0)		// ask for all of them
    28e0:	8b 81       	ldd	r24, Y+3	; 0x03
    28e2:	81 11       	cpse	r24, r1
    28e4:	19 c0       	rjmp	.+50     	; 0x2918 <main+0x1bbc>
    28e6:	10 e0       	ldi	r17, 0x00	; 0
						{
							for (i=0;i<4;i++)
							{
								aDataSet.index = i+1;
								aDataSet.data = channel_data[i].stopEnable;
								serialport_writeCarriage(&aDataSet);
    28e8:	f1 2e       	mov	r15, r17
    28ea:	c2 59       	subi	r28, 0x92	; 146
    28ec:	dd 4f       	sbci	r29, 0xFD	; 253
    28ee:	08 81       	ld	r16, Y
    28f0:	19 81       	ldd	r17, Y+1	; 0x01
    28f2:	ce 56       	subi	r28, 0x6E	; 110
    28f4:	d2 40       	sbci	r29, 0x02	; 2
					case 75:
						if (aDataSet.index == 0)		// ask for all of them
						{
							for (i=0;i<4;i++)
							{
								aDataSet.index = i+1;
    28f6:	f3 94       	inc	r15
    28f8:	fb 82       	std	Y+3, r15	; 0x03
								aDataSet.data = channel_data[i].stopEnable;
    28fa:	d8 01       	movw	r26, r16
    28fc:	8c 91       	ld	r24, X
    28fe:	8c 83       	std	Y+4, r24	; 0x04
    2900:	1d 82       	std	Y+5, r1	; 0x05
								serialport_writeCarriage(&aDataSet);
    2902:	ce 01       	movw	r24, r28
    2904:	01 96       	adiw	r24, 0x01	; 1
    2906:	0e 94 aa 19 	call	0x3354	; 0x3354 <serialport_writeCarriage>
    290a:	0a 5c       	subi	r16, 0xCA	; 202
    290c:	1f 4f       	sbci	r17, 0xFF	; 255
						break;
						
					case 75:
						if (aDataSet.index == 0)		// ask for all of them
						{
							for (i=0;i<4;i++)
    290e:	b4 e0       	ldi	r27, 0x04	; 4
    2910:	fb 12       	cpse	r15, r27
    2912:	f1 cf       	rjmp	.-30     	; 0x28f6 <main+0x1b9a>
    2914:	0c 94 98 08 	jmp	0x1130	; 0x1130 <main+0x3d4>
								serialport_writeCarriage(&aDataSet);
							}
						}
						else							// ask for a specific one
						{
							aDataSet.data = channel_data[aDataSet.index-1].stopEnable;
    2918:	90 e0       	ldi	r25, 0x00	; 0
    291a:	01 97       	sbiw	r24, 0x01	; 1
    291c:	26 e3       	ldi	r18, 0x36	; 54
    291e:	28 9f       	mul	r18, r24
    2920:	f0 01       	movw	r30, r0
    2922:	29 9f       	mul	r18, r25
    2924:	f0 0d       	add	r31, r0
    2926:	11 24       	eor	r1, r1
    2928:	21 e0       	ldi	r18, 0x01	; 1
    292a:	30 e0       	ldi	r19, 0x00	; 0
    292c:	2c 0f       	add	r18, r28
    292e:	3d 1f       	adc	r19, r29
    2930:	e2 0f       	add	r30, r18
    2932:	f3 1f       	adc	r31, r19
    2934:	e5 5a       	subi	r30, 0xA5	; 165
    2936:	ff 4f       	sbci	r31, 0xFF	; 255
    2938:	80 81       	ld	r24, Z
    293a:	8c 83       	std	Y+4, r24	; 0x04
    293c:	1d 82       	std	Y+5, r1	; 0x05
							serialport_writeCarriage(&aDataSet);
    293e:	c9 01       	movw	r24, r18
    2940:	0e 94 aa 19 	call	0x3354	; 0x3354 <serialport_writeCarriage>
    2944:	0c 94 98 08 	jmp	0x1130	; 0x1130 <main+0x3d4>
						}
						break;
						
					case 76:
						if (aDataSet.index == 0)		// ask for all of them
    2948:	8b 81       	ldd	r24, Y+3	; 0x03
    294a:	81 11       	cpse	r24, r1
    294c:	19 c0       	rjmp	.+50     	; 0x2980 <main+0x1c24>
    294e:	10 e0       	ldi	r17, 0x00	; 0
						{
							for (i=0;i<4;i++)
							{
								aDataSet.index = i+1;
								aDataSet.data = channel_data[i].threshold;
								serialport_writeCarriage(&aDataSet);
    2950:	f1 2e       	mov	r15, r17
    2952:	c6 59       	subi	r28, 0x96	; 150
    2954:	dd 4f       	sbci	r29, 0xFD	; 253
    2956:	08 81       	ld	r16, Y
    2958:	19 81       	ldd	r17, Y+1	; 0x01
    295a:	ca 56       	subi	r28, 0x6A	; 106
    295c:	d2 40       	sbci	r29, 0x02	; 2
					case 76:
						if (aDataSet.index == 0)		// ask for all of them
						{
							for (i=0;i<4;i++)
							{
								aDataSet.index = i+1;
    295e:	f3 94       	inc	r15
    2960:	fb 82       	std	Y+3, r15	; 0x03
								aDataSet.data = channel_data[i].threshold;
    2962:	d8 01       	movw	r26, r16
    2964:	8c 91       	ld	r24, X
    2966:	8c 83       	std	Y+4, r24	; 0x04
    2968:	1d 82       	std	Y+5, r1	; 0x05
								serialport_writeCarriage(&aDataSet);
    296a:	ce 01       	movw	r24, r28
    296c:	01 96       	adiw	r24, 0x01	; 1
    296e:	0e 94 aa 19 	call	0x3354	; 0x3354 <serialport_writeCarriage>
    2972:	0a 5c       	subi	r16, 0xCA	; 202
    2974:	1f 4f       	sbci	r17, 0xFF	; 255
						break;
						
					case 76:
						if (aDataSet.index == 0)		// ask for all of them
						{
							for (i=0;i<4;i++)
    2976:	b4 e0       	ldi	r27, 0x04	; 4
    2978:	fb 12       	cpse	r15, r27
    297a:	f1 cf       	rjmp	.-30     	; 0x295e <main+0x1c02>
    297c:	0c 94 98 08 	jmp	0x1130	; 0x1130 <main+0x3d4>
								serialport_writeCarriage(&aDataSet);
							}
						}
						else							// ask for a specific one
						{
							aDataSet.data = channel_data[aDataSet.index-1].threshold;
    2980:	90 e0       	ldi	r25, 0x00	; 0
    2982:	01 97       	sbiw	r24, 0x01	; 1
    2984:	26 e3       	ldi	r18, 0x36	; 54
    2986:	28 9f       	mul	r18, r24
    2988:	f0 01       	movw	r30, r0
    298a:	29 9f       	mul	r18, r25
    298c:	f0 0d       	add	r31, r0
    298e:	11 24       	eor	r1, r1
    2990:	21 e0       	ldi	r18, 0x01	; 1
    2992:	30 e0       	ldi	r19, 0x00	; 0
    2994:	2c 0f       	add	r18, r28
    2996:	3d 1f       	adc	r19, r29
    2998:	e2 0f       	add	r30, r18
    299a:	f3 1f       	adc	r31, r19
    299c:	e4 5a       	subi	r30, 0xA4	; 164
    299e:	ff 4f       	sbci	r31, 0xFF	; 255
    29a0:	80 81       	ld	r24, Z
    29a2:	8c 83       	std	Y+4, r24	; 0x04
    29a4:	1d 82       	std	Y+5, r1	; 0x05
							serialport_writeCarriage(&aDataSet);
    29a6:	c9 01       	movw	r24, r18
    29a8:	0e 94 aa 19 	call	0x3354	; 0x3354 <serialport_writeCarriage>
    29ac:	0c 94 98 08 	jmp	0x1130	; 0x1130 <main+0x3d4>
						}
						break;
						
					case 77:							// display backlight and contrast
						switch (aDataSet.index)
    29b0:	8b 81       	ldd	r24, Y+3	; 0x03
    29b2:	81 30       	cpi	r24, 0x01	; 1
    29b4:	11 f1       	breq	.+68     	; 0x29fa <main+0x1c9e>
    29b6:	28 f0       	brcs	.+10     	; 0x29c2 <main+0x1c66>
    29b8:	82 30       	cpi	r24, 0x02	; 2
    29ba:	11 f0       	breq	.+4      	; 0x29c0 <main+0x1c64>
    29bc:	0c 94 98 08 	jmp	0x1130	; 0x1130 <main+0x3d4>
    29c0:	29 c0       	rjmp	.+82     	; 0x2a14 <main+0x1cb8>
						{
							case 0:
								aDataSet.index = 1;
    29c2:	81 e0       	ldi	r24, 0x01	; 1
    29c4:	8b 83       	std	Y+3, r24	; 0x03
								aDataSet.data = alphaDisplay.backlight;
    29c6:	c9 5d       	subi	r28, 0xD9	; 217
    29c8:	de 4f       	sbci	r29, 0xFE	; 254
    29ca:	88 81       	ld	r24, Y
    29cc:	c7 52       	subi	r28, 0x27	; 39
    29ce:	d1 40       	sbci	r29, 0x01	; 1
    29d0:	8c 83       	std	Y+4, r24	; 0x04
    29d2:	1d 82       	std	Y+5, r1	; 0x05
								serialport_writeCarriage(&aDataSet);
    29d4:	ce 01       	movw	r24, r28
    29d6:	01 96       	adiw	r24, 0x01	; 1
    29d8:	0e 94 aa 19 	call	0x3354	; 0x3354 <serialport_writeCarriage>
								aDataSet.index = 2;
    29dc:	82 e0       	ldi	r24, 0x02	; 2
    29de:	8b 83       	std	Y+3, r24	; 0x03
								aDataSet.data = alphaDisplay.contrast;
    29e0:	c8 5d       	subi	r28, 0xD8	; 216
    29e2:	de 4f       	sbci	r29, 0xFE	; 254
    29e4:	88 81       	ld	r24, Y
    29e6:	c8 52       	subi	r28, 0x28	; 40
    29e8:	d1 40       	sbci	r29, 0x01	; 1
    29ea:	8c 83       	std	Y+4, r24	; 0x04
    29ec:	1d 82       	std	Y+5, r1	; 0x05
								serialport_writeCarriage(&aDataSet);
    29ee:	ce 01       	movw	r24, r28
    29f0:	01 96       	adiw	r24, 0x01	; 1
    29f2:	0e 94 aa 19 	call	0x3354	; 0x3354 <serialport_writeCarriage>
								break;
    29f6:	0c 94 98 08 	jmp	0x1130	; 0x1130 <main+0x3d4>
						
							case 1:
								aDataSet.data = alphaDisplay.backlight;
    29fa:	c9 5d       	subi	r28, 0xD9	; 217
    29fc:	de 4f       	sbci	r29, 0xFE	; 254
    29fe:	88 81       	ld	r24, Y
    2a00:	c7 52       	subi	r28, 0x27	; 39
    2a02:	d1 40       	sbci	r29, 0x01	; 1
    2a04:	8c 83       	std	Y+4, r24	; 0x04
    2a06:	1d 82       	std	Y+5, r1	; 0x05
								serialport_writeCarriage(&aDataSet);
    2a08:	ce 01       	movw	r24, r28
    2a0a:	01 96       	adiw	r24, 0x01	; 1
    2a0c:	0e 94 aa 19 	call	0x3354	; 0x3354 <serialport_writeCarriage>
								break;
    2a10:	0c 94 98 08 	jmp	0x1130	; 0x1130 <main+0x3d4>
						
							case 2:
								aDataSet.data = alphaDisplay.contrast;
    2a14:	c8 5d       	subi	r28, 0xD8	; 216
    2a16:	de 4f       	sbci	r29, 0xFE	; 254
    2a18:	88 81       	ld	r24, Y
    2a1a:	c8 52       	subi	r28, 0x28	; 40
    2a1c:	d1 40       	sbci	r29, 0x01	; 1
    2a1e:	8c 83       	std	Y+4, r24	; 0x04
    2a20:	1d 82       	std	Y+5, r1	; 0x05
								serialport_writeCarriage(&aDataSet);
    2a22:	ce 01       	movw	r24, r28
    2a24:	01 96       	adiw	r24, 0x01	; 1
    2a26:	0e 94 aa 19 	call	0x3354	; 0x3354 <serialport_writeCarriage>
								break;
    2a2a:	0c 94 98 08 	jmp	0x1130	; 0x1130 <main+0x3d4>
						}
						break;
						
					case 78:
						aDataSet.index = 1;
    2a2e:	81 e0       	ldi	r24, 0x01	; 1
    2a30:	8b 83       	std	Y+3, r24	; 0x03
						aDataSet.data = led_data.mode;
    2a32:	cc 5e       	subi	r28, 0xEC	; 236
    2a34:	de 4f       	sbci	r29, 0xFE	; 254
    2a36:	88 81       	ld	r24, Y
    2a38:	c4 51       	subi	r28, 0x14	; 20
    2a3a:	d1 40       	sbci	r29, 0x01	; 1
    2a3c:	8c 83       	std	Y+4, r24	; 0x04
    2a3e:	1d 82       	std	Y+5, r1	; 0x05
						serialport_writeCarriage(&aDataSet);
    2a40:	ce 01       	movw	r24, r28
    2a42:	01 96       	adiw	r24, 0x01	; 1
    2a44:	0e 94 aa 19 	call	0x3354	; 0x3354 <serialport_writeCarriage>
						break;
    2a48:	0c 94 98 08 	jmp	0x1130	; 0x1130 <main+0x3d4>
						
					case 79:
						if (aDataSet.index == 0)		// ask for all of them
    2a4c:	8b 81       	ldd	r24, Y+3	; 0x03
    2a4e:	81 11       	cpse	r24, r1
    2a50:	17 c0       	rjmp	.+46     	; 0x2a80 <main+0x1d24>
    2a52:	cf 57       	subi	r28, 0x7F	; 127
    2a54:	dd 4f       	sbci	r29, 0xFD	; 253
    2a56:	08 81       	ld	r16, Y
    2a58:	19 81       	ldd	r17, Y+1	; 0x01
    2a5a:	c1 58       	subi	r28, 0x81	; 129
    2a5c:	d2 40       	sbci	r29, 0x02	; 2
    2a5e:	f1 2c       	mov	r15, r1
						{
							for (i=0;i<3;i++)
							{
								aDataSet.index = i+1;
    2a60:	f3 94       	inc	r15
    2a62:	fb 82       	std	Y+3, r15	; 0x03
								aDataSet.data = led_data.manualPower[i];
    2a64:	d8 01       	movw	r26, r16
    2a66:	8d 91       	ld	r24, X+
    2a68:	8d 01       	movw	r16, r26
    2a6a:	8c 83       	std	Y+4, r24	; 0x04
    2a6c:	1d 82       	std	Y+5, r1	; 0x05
								serialport_writeCarriage(&aDataSet);
    2a6e:	ce 01       	movw	r24, r28
    2a70:	01 96       	adiw	r24, 0x01	; 1
    2a72:	0e 94 aa 19 	call	0x3354	; 0x3354 <serialport_writeCarriage>
						break;
						
					case 79:
						if (aDataSet.index == 0)		// ask for all of them
						{
							for (i=0;i<3;i++)
    2a76:	b3 e0       	ldi	r27, 0x03	; 3
    2a78:	fb 12       	cpse	r15, r27
    2a7a:	f2 cf       	rjmp	.-28     	; 0x2a60 <main+0x1d04>
    2a7c:	0c 94 98 08 	jmp	0x1130	; 0x1130 <main+0x3d4>
								serialport_writeCarriage(&aDataSet);
							}
						}
						else							// ask for a specific one
						{
							aDataSet.data = led_data.manualPower[aDataSet.index-1];
    2a80:	e4 e1       	ldi	r30, 0x14	; 20
    2a82:	f1 e0       	ldi	r31, 0x01	; 1
    2a84:	ec 0f       	add	r30, r28
    2a86:	fd 1f       	adc	r31, r29
    2a88:	e8 0f       	add	r30, r24
    2a8a:	f1 1d       	adc	r31, r1
    2a8c:	80 81       	ld	r24, Z
    2a8e:	8c 83       	std	Y+4, r24	; 0x04
    2a90:	1d 82       	std	Y+5, r1	; 0x05
							serialport_writeCarriage(&aDataSet);
    2a92:	ce 01       	movw	r24, r28
    2a94:	01 96       	adiw	r24, 0x01	; 1
    2a96:	0e 94 aa 19 	call	0x3354	; 0x3354 <serialport_writeCarriage>
    2a9a:	0c 94 98 08 	jmp	0x1130	; 0x1130 <main+0x3d4>
						}
						break;
						
					case 80:						// display content
						if (aDataSet.index == 0)		// ask for all of them
    2a9e:	8b 81       	ldd	r24, Y+3	; 0x03
    2aa0:	81 11       	cpse	r24, r1
    2aa2:	17 c0       	rjmp	.+46     	; 0x2ad2 <main+0x1d76>
    2aa4:	c1 58       	subi	r28, 0x81	; 129
    2aa6:	dd 4f       	sbci	r29, 0xFD	; 253
    2aa8:	08 81       	ld	r16, Y
    2aaa:	19 81       	ldd	r17, Y+1	; 0x01
    2aac:	cf 57       	subi	r28, 0x7F	; 127
    2aae:	d2 40       	sbci	r29, 0x02	; 2
    2ab0:	f1 2c       	mov	r15, r1
						{
							for (i=0;i<255;i++)
							{
								aDataSet.index = i+1;
    2ab2:	f3 94       	inc	r15
    2ab4:	fb 82       	std	Y+3, r15	; 0x03
								aDataSet.data = alphaDisplay.content[i];
    2ab6:	f8 01       	movw	r30, r16
    2ab8:	81 91       	ld	r24, Z+
    2aba:	8f 01       	movw	r16, r30
    2abc:	8c 83       	std	Y+4, r24	; 0x04
    2abe:	1d 82       	std	Y+5, r1	; 0x05
								serialport_writeCarriage(&aDataSet);
    2ac0:	ce 01       	movw	r24, r28
    2ac2:	01 96       	adiw	r24, 0x01	; 1
    2ac4:	0e 94 aa 19 	call	0x3354	; 0x3354 <serialport_writeCarriage>
						break;
						
					case 80:						// display content
						if (aDataSet.index == 0)		// ask for all of them
						{
							for (i=0;i<255;i++)
    2ac8:	ff ef       	ldi	r31, 0xFF	; 255
    2aca:	ff 12       	cpse	r15, r31
    2acc:	f2 cf       	rjmp	.-28     	; 0x2ab2 <main+0x1d56>
    2ace:	0c 94 98 08 	jmp	0x1130	; 0x1130 <main+0x3d4>
								serialport_writeCarriage(&aDataSet);
							}
						}
						else							// ask for a specific one
						{
							aDataSet.data = alphaDisplay.content[aDataSet.index-1];
    2ad2:	e7 e2       	ldi	r30, 0x27	; 39
    2ad4:	f1 e0       	ldi	r31, 0x01	; 1
    2ad6:	ec 0f       	add	r30, r28
    2ad8:	fd 1f       	adc	r31, r29
    2ada:	e8 0f       	add	r30, r24
    2adc:	f1 1d       	adc	r31, r1
    2ade:	80 a1       	ldd	r24, Z+32	; 0x20
    2ae0:	8c 83       	std	Y+4, r24	; 0x04
    2ae2:	1d 82       	std	Y+5, r1	; 0x05
							serialport_writeCarriage(&aDataSet);
    2ae4:	ce 01       	movw	r24, r28
    2ae6:	01 96       	adiw	r24, 0x01	; 1
    2ae8:	0e 94 aa 19 	call	0x3354	; 0x3354 <serialport_writeCarriage>
    2aec:	0c 94 98 08 	jmp	0x1130	; 0x1130 <main+0x3d4>
						}
						break;
						
					case 81:						// display screens
						if (aDataSet.index == 0)		// ask for all of them
    2af0:	8b 81       	ldd	r24, Y+3	; 0x03
    2af2:	81 11       	cpse	r24, r1
    2af4:	17 c0       	rjmp	.+46     	; 0x2b24 <main+0x1dc8>
    2af6:	07 e2       	ldi	r16, 0x27	; 39
    2af8:	11 e0       	ldi	r17, 0x01	; 1
    2afa:	0c 0f       	add	r16, r28
    2afc:	1d 1f       	adc	r17, r29
    2afe:	0e 5f       	subi	r16, 0xFE	; 254
    2b00:	1f 4f       	sbci	r17, 0xFF	; 255
    2b02:	f1 2c       	mov	r15, r1
						{
							for (i=0;i<31;i++)
							{
								aDataSet.index = i+1;
    2b04:	f3 94       	inc	r15
    2b06:	fb 82       	std	Y+3, r15	; 0x03
								aDataSet.data = alphaDisplay.screen[i];
    2b08:	d8 01       	movw	r26, r16
    2b0a:	8d 91       	ld	r24, X+
    2b0c:	8d 01       	movw	r16, r26
    2b0e:	8c 83       	std	Y+4, r24	; 0x04
    2b10:	1d 82       	std	Y+5, r1	; 0x05
								serialport_writeCarriage(&aDataSet);
    2b12:	ce 01       	movw	r24, r28
    2b14:	01 96       	adiw	r24, 0x01	; 1
    2b16:	0e 94 aa 19 	call	0x3354	; 0x3354 <serialport_writeCarriage>
						break;
						
					case 81:						// display screens
						if (aDataSet.index == 0)		// ask for all of them
						{
							for (i=0;i<31;i++)
    2b1a:	bf e1       	ldi	r27, 0x1F	; 31
    2b1c:	fb 12       	cpse	r15, r27
    2b1e:	f2 cf       	rjmp	.-28     	; 0x2b04 <main+0x1da8>
    2b20:	0c 94 98 08 	jmp	0x1130	; 0x1130 <main+0x3d4>
								serialport_writeCarriage(&aDataSet);
							}
						}
						else							// ask for a specific one
						{
							aDataSet.data = alphaDisplay.screen[aDataSet.index-1];
    2b24:	e7 e2       	ldi	r30, 0x27	; 39
    2b26:	f1 e0       	ldi	r31, 0x01	; 1
    2b28:	ec 0f       	add	r30, r28
    2b2a:	fd 1f       	adc	r31, r29
    2b2c:	e8 0f       	add	r30, r24
    2b2e:	f1 1d       	adc	r31, r1
    2b30:	81 81       	ldd	r24, Z+1	; 0x01
    2b32:	8c 83       	std	Y+4, r24	; 0x04
    2b34:	1d 82       	std	Y+5, r1	; 0x05
							serialport_writeCarriage(&aDataSet);
    2b36:	ce 01       	movw	r24, r28
    2b38:	01 96       	adiw	r24, 0x01	; 1
    2b3a:	0e 94 aa 19 	call	0x3354	; 0x3354 <serialport_writeCarriage>
    2b3e:	0c 94 98 08 	jmp	0x1130	; 0x1130 <main+0x3d4>
						}						
					}
					if (temperature[j] > channel_data[i].maxTemp[j])	// a temperature over maximum! o.O
					{
						// over temperature
						if (alert_data.overtempEnable)
    2b42:	c8 5e       	subi	r28, 0xE8	; 232
    2b44:	de 4f       	sbci	r29, 0xFE	; 254
    2b46:	68 80       	ld	r6, Y
    2b48:	c8 51       	subi	r28, 0x18	; 24
    2b4a:	d1 40       	sbci	r29, 0x01	; 1
    2b4c:	c1 5a       	subi	r28, 0xA1	; 161
    2b4e:	dd 4f       	sbci	r29, 0xFD	; 253
    2b50:	e8 81       	ld	r30, Y
    2b52:	f9 81       	ldd	r31, Y+1	; 0x01
    2b54:	cf 55       	subi	r28, 0x5F	; 95
    2b56:	d2 40       	sbci	r29, 0x02	; 2
    2b58:	c6 5a       	subi	r28, 0xA6	; 166
    2b5a:	dd 4f       	sbci	r29, 0xFD	; 253
    2b5c:	e8 83       	st	Y, r30
    2b5e:	f9 83       	std	Y+1, r31	; 0x01
    2b60:	ca 55       	subi	r28, 0x5A	; 90
    2b62:	d2 40       	sbci	r29, 0x02	; 2
    2b64:	cf 59       	subi	r28, 0x9F	; 159
    2b66:	dd 4f       	sbci	r29, 0xFD	; 253
    2b68:	28 81       	ld	r18, Y
    2b6a:	39 81       	ldd	r19, Y+1	; 0x01
    2b6c:	c1 56       	subi	r28, 0x61	; 97
    2b6e:	d2 40       	sbci	r29, 0x02	; 2
    2b70:	c4 59       	subi	r28, 0x94	; 148
    2b72:	dd 4f       	sbci	r29, 0xFD	; 253
    2b74:	28 83       	st	Y, r18
    2b76:	39 83       	std	Y+1, r19	; 0x01
    2b78:	cc 56       	subi	r28, 0x6C	; 108
    2b7a:	d2 40       	sbci	r29, 0x02	; 2
    2b7c:	cd 59       	subi	r28, 0x9D	; 157
    2b7e:	dd 4f       	sbci	r29, 0xFD	; 253
    2b80:	88 81       	ld	r24, Y
    2b82:	99 81       	ldd	r25, Y+1	; 0x01
    2b84:	c3 56       	subi	r28, 0x63	; 99
    2b86:	d2 40       	sbci	r29, 0x02	; 2
    2b88:	c6 59       	subi	r28, 0x96	; 150
    2b8a:	dd 4f       	sbci	r29, 0xFD	; 253
    2b8c:	88 83       	st	Y, r24
    2b8e:	99 83       	std	Y+1, r25	; 0x01
    2b90:	ca 56       	subi	r28, 0x6A	; 106
    2b92:	d2 40       	sbci	r29, 0x02	; 2
    2b94:	cb 59       	subi	r28, 0x9B	; 155
    2b96:	dd 4f       	sbci	r29, 0xFD	; 253
    2b98:	a8 81       	ld	r26, Y
    2b9a:	b9 81       	ldd	r27, Y+1	; 0x01
    2b9c:	c5 56       	subi	r28, 0x65	; 101
    2b9e:	d2 40       	sbci	r29, 0x02	; 2
    2ba0:	c0 59       	subi	r28, 0x90	; 144
    2ba2:	dd 4f       	sbci	r29, 0xFD	; 253
    2ba4:	a8 83       	st	Y, r26
    2ba6:	b9 83       	std	Y+1, r27	; 0x01
    2ba8:	c0 57       	subi	r28, 0x70	; 112
    2baa:	d2 40       	sbci	r29, 0x02	; 2
    2bac:	c9 59       	subi	r28, 0x99	; 153
    2bae:	dd 4f       	sbci	r29, 0xFD	; 253
    2bb0:	e8 81       	ld	r30, Y
    2bb2:	f9 81       	ldd	r31, Y+1	; 0x01
    2bb4:	c7 56       	subi	r28, 0x67	; 103
    2bb6:	d2 40       	sbci	r29, 0x02	; 2
    2bb8:	c2 59       	subi	r28, 0x92	; 146
    2bba:	dd 4f       	sbci	r29, 0xFD	; 253
    2bbc:	e8 83       	st	Y, r30
    2bbe:	f9 83       	std	Y+1, r31	; 0x01
    2bc0:	ce 56       	subi	r28, 0x6E	; 110
    2bc2:	d2 40       	sbci	r29, 0x02	; 2
    2bc4:	ce 58       	subi	r28, 0x8E	; 142
    2bc6:	dd 4f       	sbci	r29, 0xFD	; 253
    2bc8:	c8 80       	ld	r12, Y
    2bca:	c2 57       	subi	r28, 0x72	; 114
    2bcc:	d2 40       	sbci	r29, 0x02	; 2
    2bce:	cd 58       	subi	r28, 0x8D	; 141
    2bd0:	dd 4f       	sbci	r29, 0xFD	; 253
    2bd2:	d8 80       	ld	r13, Y
    2bd4:	c3 57       	subi	r28, 0x73	; 115
    2bd6:	d2 40       	sbci	r29, 0x02	; 2
    2bd8:	cc 58       	subi	r28, 0x8C	; 140
    2bda:	dd 4f       	sbci	r29, 0xFD	; 253
    2bdc:	f8 81       	ld	r31, Y
    2bde:	c4 57       	subi	r28, 0x74	; 116
    2be0:	d2 40       	sbci	r29, 0x02	; 2
    2be2:	c7 5b       	subi	r28, 0xB7	; 183
    2be4:	dd 4f       	sbci	r29, 0xFD	; 253
    2be6:	f8 83       	st	Y, r31
    2be8:	c9 54       	subi	r28, 0x49	; 73
    2bea:	d2 40       	sbci	r29, 0x02	; 2
    2bec:	cb 58       	subi	r28, 0x8B	; 139
    2bee:	dd 4f       	sbci	r29, 0xFD	; 253
    2bf0:	28 81       	ld	r18, Y
    2bf2:	c5 57       	subi	r28, 0x75	; 117
    2bf4:	d2 40       	sbci	r29, 0x02	; 2
    2bf6:	c6 5b       	subi	r28, 0xB6	; 182
    2bf8:	dd 4f       	sbci	r29, 0xFD	; 253
    2bfa:	28 83       	st	Y, r18
    2bfc:	ca 54       	subi	r28, 0x4A	; 74
    2bfe:	d2 40       	sbci	r29, 0x02	; 2
    2c00:	ca 58       	subi	r28, 0x8A	; 138
    2c02:	dd 4f       	sbci	r29, 0xFD	; 253
    2c04:	38 81       	ld	r19, Y
    2c06:	c6 57       	subi	r28, 0x76	; 118
    2c08:	d2 40       	sbci	r29, 0x02	; 2
    2c0a:	c3 5b       	subi	r28, 0xB3	; 179
    2c0c:	dd 4f       	sbci	r29, 0xFD	; 253
    2c0e:	38 83       	st	Y, r19
    2c10:	cd 54       	subi	r28, 0x4D	; 77
    2c12:	d2 40       	sbci	r29, 0x02	; 2
    2c14:	c9 58       	subi	r28, 0x89	; 137
    2c16:	dd 4f       	sbci	r29, 0xFD	; 253
    2c18:	48 81       	ld	r20, Y
    2c1a:	c7 57       	subi	r28, 0x77	; 119
    2c1c:	d2 40       	sbci	r29, 0x02	; 2
    2c1e:	c2 5b       	subi	r28, 0xB2	; 178
    2c20:	dd 4f       	sbci	r29, 0xFD	; 253
    2c22:	48 83       	st	Y, r20
    2c24:	ce 54       	subi	r28, 0x4E	; 78
    2c26:	d2 40       	sbci	r29, 0x02	; 2
    2c28:	c8 58       	subi	r28, 0x88	; 136
    2c2a:	dd 4f       	sbci	r29, 0xFD	; 253
    2c2c:	88 81       	ld	r24, Y
    2c2e:	c8 57       	subi	r28, 0x78	; 120
    2c30:	d2 40       	sbci	r29, 0x02	; 2
    2c32:	c9 5b       	subi	r28, 0xB9	; 185
    2c34:	dd 4f       	sbci	r29, 0xFD	; 253
    2c36:	88 83       	st	Y, r24
    2c38:	c7 54       	subi	r28, 0x47	; 71
    2c3a:	d2 40       	sbci	r29, 0x02	; 2
    2c3c:	c7 58       	subi	r28, 0x87	; 135
    2c3e:	dd 4f       	sbci	r29, 0xFD	; 253
    2c40:	98 81       	ld	r25, Y
    2c42:	c9 57       	subi	r28, 0x79	; 121
    2c44:	d2 40       	sbci	r29, 0x02	; 2
    2c46:	c8 5b       	subi	r28, 0xB8	; 184
    2c48:	dd 4f       	sbci	r29, 0xFD	; 253
    2c4a:	98 83       	st	Y, r25
    2c4c:	c8 54       	subi	r28, 0x48	; 72
    2c4e:	d2 40       	sbci	r29, 0x02	; 2
    2c50:	c6 58       	subi	r28, 0x86	; 134
    2c52:	dd 4f       	sbci	r29, 0xFD	; 253
    2c54:	a8 81       	ld	r26, Y
    2c56:	ca 57       	subi	r28, 0x7A	; 122
    2c58:	d2 40       	sbci	r29, 0x02	; 2
    2c5a:	c5 5b       	subi	r28, 0xB5	; 181
    2c5c:	dd 4f       	sbci	r29, 0xFD	; 253
    2c5e:	a8 83       	st	Y, r26
    2c60:	cb 54       	subi	r28, 0x4B	; 75
    2c62:	d2 40       	sbci	r29, 0x02	; 2
    2c64:	c5 58       	subi	r28, 0x85	; 133
    2c66:	dd 4f       	sbci	r29, 0xFD	; 253
    2c68:	b8 81       	ld	r27, Y
    2c6a:	cb 57       	subi	r28, 0x7B	; 123
    2c6c:	d2 40       	sbci	r29, 0x02	; 2
    2c6e:	c4 5b       	subi	r28, 0xB4	; 180
    2c70:	dd 4f       	sbci	r29, 0xFD	; 253
    2c72:	b8 83       	st	Y, r27
    2c74:	cc 54       	subi	r28, 0x4C	; 76
    2c76:	d2 40       	sbci	r29, 0x02	; 2
    2c78:	c3 5a       	subi	r28, 0xA3	; 163
    2c7a:	dd 4f       	sbci	r29, 0xFD	; 253
    2c7c:	e8 81       	ld	r30, Y
    2c7e:	f9 81       	ldd	r31, Y+1	; 0x01
    2c80:	cd 55       	subi	r28, 0x5D	; 93
    2c82:	d2 40       	sbci	r29, 0x02	; 2
    2c84:	c1 5b       	subi	r28, 0xB1	; 177
    2c86:	dd 4f       	sbci	r29, 0xFD	; 253
    2c88:	e8 83       	st	Y, r30
    2c8a:	f9 83       	std	Y+1, r31	; 0x01
    2c8c:	cf 54       	subi	r28, 0x4F	; 79
    2c8e:	d2 40       	sbci	r29, 0x02	; 2
    2c90:	68 94       	set
    2c92:	88 24       	eor	r8, r8
    2c94:	82 f8       	bld	r8, 2
    2c96:	99 24       	eor	r9, r9
    2c98:	93 94       	inc	r9
    2c9a:	8c 0e       	add	r8, r28
    2c9c:	9d 1e       	adc	r9, r29
    2c9e:	a1 2c       	mov	r10, r1
    2ca0:	b1 2c       	mov	r11, r1
    2ca2:	21 2c       	mov	r2, r1
				{
					case off:						
						channel_status[i].power = 0;				// turn it off
						if (channel_data[i].manualPower > 0)		
						{
							channel_status[i].status = startup;		// start the channel and reset the startup timer
    2ca4:	55 24       	eor	r5, r5
    2ca6:	53 94       	inc	r5
#include "TempSensor.h"
#include "EEPROM_data.h"
#include "AlphanumericDisplay.h"


int main(void)
    2ca8:	7e 01       	movw	r14, r28
    2caa:	fe e1       	ldi	r31, 0x1E	; 30
    2cac:	ef 0e       	add	r14, r31
    2cae:	f1 1c       	adc	r15, r1
						// over temperature
						if (alert_data.overtempEnable)
						{
							alert_status.overtemp = 1;
						}					
						cooling = 100;
    2cb0:	0f 2e       	mov	r0, r31
    2cb2:	f4 e6       	ldi	r31, 0x64	; 100
    2cb4:	7f 2e       	mov	r7, r31
    2cb6:	f0 2d       	mov	r31, r0
    2cb8:	0c 94 ae 08 	jmp	0x115c	; 0x115c <main+0x400>
					switch1_ctr++;
				}
			}
			else
			{
				switch1_ctr = 0;
    2cbc:	c7 59       	subi	r28, 0x97	; 151
    2cbe:	dd 4f       	sbci	r29, 0xFD	; 253
    2cc0:	18 82       	st	Y, r1
    2cc2:	c9 56       	subi	r28, 0x69	; 105
    2cc4:	d2 40       	sbci	r29, 0x02	; 2
    2cc6:	0c 94 39 0c 	jmp	0x1872	; 0x1872 <main+0xb16>
					switch2_ctr++;					
				}		
			}
			else
			{
				switch2_ctr = 0;
    2cca:	c7 5a       	subi	r28, 0xA7	; 167
    2ccc:	dd 4f       	sbci	r29, 0xFD	; 253
    2cce:	18 82       	st	Y, r1
    2cd0:	c9 55       	subi	r28, 0x59	; 89
    2cd2:	d2 40       	sbci	r29, 0x02	; 2
    2cd4:	0c 94 4e 0c 	jmp	0x189c	; 0x189c <main+0xb40>

00002cd8 <writeByte>:
#define RS_INSTRUCTION (PORTB_OUTCLR = 0b00001000)
#define RS_DATA (PORTB_OUTSET = 0b00001000)


void writeByte(uint8_t aByte)
{
    2cd8:	cf 93       	push	r28
    2cda:	df 93       	push	r29
	uint8_t dummy = aByte;	
	PORTC_OUT &= 0b11000011;	
    2cdc:	e4 e4       	ldi	r30, 0x44	; 68
    2cde:	f6 e0       	ldi	r31, 0x06	; 6
    2ce0:	90 81       	ld	r25, Z
    2ce2:	93 7c       	andi	r25, 0xC3	; 195
    2ce4:	90 83       	st	Z, r25
	PORTC_OUT |= ((dummy >> 2) & 0b00111100);
    2ce6:	20 81       	ld	r18, Z
    2ce8:	98 2f       	mov	r25, r24
    2cea:	96 95       	lsr	r25
    2cec:	96 95       	lsr	r25
    2cee:	9c 73       	andi	r25, 0x3C	; 60
    2cf0:	92 2b       	or	r25, r18
    2cf2:	90 83       	st	Z, r25
	ENABLE_SET;
    2cf4:	c5 e2       	ldi	r28, 0x25	; 37
    2cf6:	d6 e0       	ldi	r29, 0x06	; 6
    2cf8:	44 e0       	ldi	r20, 0x04	; 4
    2cfa:	48 83       	st	Y, r20
	#else
		//round up by default
		__ticks_dc = (uint32_t)(ceil(fabs(__tmp)));
	#endif

	__builtin_avr_delay_cycles(__ticks_dc);
    2cfc:	9a e0       	ldi	r25, 0x0A	; 10
    2cfe:	9a 95       	dec	r25
    2d00:	f1 f7       	brne	.-4      	; 0x2cfe <writeByte+0x26>
    2d02:	00 c0       	rjmp	.+0      	; 0x2d04 <writeByte+0x2c>
	_delay_us(1);
	ENABLE_CLEAR;
    2d04:	a6 e2       	ldi	r26, 0x26	; 38
    2d06:	b6 e0       	ldi	r27, 0x06	; 6
    2d08:	4c 93       	st	X, r20
    2d0a:	9a e0       	ldi	r25, 0x0A	; 10
    2d0c:	9a 95       	dec	r25
    2d0e:	f1 f7       	brne	.-4      	; 0x2d0c <writeByte+0x34>
    2d10:	00 c0       	rjmp	.+0      	; 0x2d12 <writeByte+0x3a>
	_delay_us(1);
	PORTC_OUT &= 0b11000011;
    2d12:	90 81       	ld	r25, Z
    2d14:	93 7c       	andi	r25, 0xC3	; 195
    2d16:	90 83       	st	Z, r25
	PORTC_OUT |= ((aByte << 2) & 0b00111100); 
    2d18:	50 81       	ld	r21, Z
    2d1a:	28 2f       	mov	r18, r24
    2d1c:	30 e0       	ldi	r19, 0x00	; 0
    2d1e:	c9 01       	movw	r24, r18
    2d20:	88 0f       	add	r24, r24
    2d22:	99 1f       	adc	r25, r25
    2d24:	88 0f       	add	r24, r24
    2d26:	99 1f       	adc	r25, r25
    2d28:	8c 73       	andi	r24, 0x3C	; 60
    2d2a:	99 27       	eor	r25, r25
    2d2c:	85 2b       	or	r24, r21
    2d2e:	80 83       	st	Z, r24
	ENABLE_SET;
    2d30:	48 83       	st	Y, r20
    2d32:	8a e0       	ldi	r24, 0x0A	; 10
    2d34:	8a 95       	dec	r24
    2d36:	f1 f7       	brne	.-4      	; 0x2d34 <writeByte+0x5c>
    2d38:	00 c0       	rjmp	.+0      	; 0x2d3a <writeByte+0x62>
	_delay_us(1);
	ENABLE_CLEAR;
    2d3a:	4c 93       	st	X, r20
    2d3c:	87 ed       	ldi	r24, 0xD7	; 215
    2d3e:	90 e0       	ldi	r25, 0x00	; 0
    2d40:	01 97       	sbiw	r24, 0x01	; 1
    2d42:	f1 f7       	brne	.-4      	; 0x2d40 <writeByte+0x68>
    2d44:	00 c0       	rjmp	.+0      	; 0x2d46 <writeByte+0x6e>
    2d46:	00 00       	nop
	_delay_us(27);	
}
    2d48:	df 91       	pop	r29
    2d4a:	cf 91       	pop	r28
    2d4c:	08 95       	ret

00002d4e <displayInit>:


void displayInit(void)
{
	RS_INSTRUCTION;
    2d4e:	88 e0       	ldi	r24, 0x08	; 8
    2d50:	80 93 26 06 	sts	0x0626, r24
	writeByte(0x29);	// 4-Bit, 2. line, DH off, IS 01
    2d54:	89 e2       	ldi	r24, 0x29	; 41
    2d56:	0e 94 6c 16 	call	0x2cd8	; 0x2cd8 <writeByte>
	writeByte(0x29);	// 4-Bit, 2. line, DH off, IS 01
    2d5a:	89 e2       	ldi	r24, 0x29	; 41
    2d5c:	0e 94 6c 16 	call	0x2cd8	; 0x2cd8 <writeByte>
	writeByte(0x29);	// 4-Bit, 2. line, DH off, IS 01
    2d60:	89 e2       	ldi	r24, 0x29	; 41
    2d62:	0e 94 6c 16 	call	0x2cd8	; 0x2cd8 <writeByte>
	writeByte(0x15);	// Bias = 1/5, 3 line LCD
    2d66:	85 e1       	ldi	r24, 0x15	; 21
    2d68:	0e 94 6c 16 	call	0x2cd8	; 0x2cd8 <writeByte>
	writeByte(0x55);	// ICON display off, booster on, C5 = 0, C4 = 1
    2d6c:	85 e5       	ldi	r24, 0x55	; 85
    2d6e:	0e 94 6c 16 	call	0x2cd8	; 0x2cd8 <writeByte>
	writeByte(0x6E);	// set voltage follower and gain
    2d72:	8e e6       	ldi	r24, 0x6E	; 110
    2d74:	0e 94 6c 16 	call	0x2cd8	; 0x2cd8 <writeByte>
	writeByte(0x72);	// C1 = 1
    2d78:	82 e7       	ldi	r24, 0x72	; 114
    2d7a:	0e 94 6c 16 	call	0x2cd8	; 0x2cd8 <writeByte>
	writeByte(0x28);	// switch back to instruction table 0
    2d7e:	88 e2       	ldi	r24, 0x28	; 40
    2d80:	0e 94 6c 16 	call	0x2cd8	; 0x2cd8 <writeByte>
	writeByte(0x0C);	// display on, cursor off
    2d84:	8c e0       	ldi	r24, 0x0C	; 12
    2d86:	0e 94 6c 16 	call	0x2cd8	; 0x2cd8 <writeByte>
	writeByte(0x01);	// clear display cursor home
    2d8a:	81 e0       	ldi	r24, 0x01	; 1
    2d8c:	0e 94 6c 16 	call	0x2cd8	; 0x2cd8 <writeByte>
	#else
		//round up by default
		__ticks_dc = (uint32_t)(ceil(fabs(__tmp)));
	#endif

	__builtin_avr_delay_cycles(__ticks_dc);
    2d90:	8f eb       	ldi	r24, 0xBF	; 191
    2d92:	91 e2       	ldi	r25, 0x21	; 33
    2d94:	01 97       	sbiw	r24, 0x01	; 1
    2d96:	f1 f7       	brne	.-4      	; 0x2d94 <displayInit+0x46>
    2d98:	00 c0       	rjmp	.+0      	; 0x2d9a <displayInit+0x4c>
    2d9a:	00 00       	nop
	_delay_ms(1.08);
	writeByte(0x06);	// cursor auto increment	
    2d9c:	86 e0       	ldi	r24, 0x06	; 6
    2d9e:	0e 94 6c 16 	call	0x2cd8	; 0x2cd8 <writeByte>
    2da2:	08 95       	ret

00002da4 <displaySetCursor>:
	_delay_ms(1.08);	
}

void displaySetCursor(uint8_t place)
{
	RS_INSTRUCTION;
    2da4:	98 e0       	ldi	r25, 0x08	; 8
    2da6:	90 93 26 06 	sts	0x0626, r25
	writeByte(0x80 | place);	// 
    2daa:	80 68       	ori	r24, 0x80	; 128
    2dac:	0e 94 6c 16 	call	0x2cd8	; 0x2cd8 <writeByte>
    2db0:	08 95       	ret

00002db2 <displayWriteChar>:
}

// write a char on cursor place and increment cursor
void displayWriteChar(uint8_t aChar)
{
	RS_DATA;
    2db2:	98 e0       	ldi	r25, 0x08	; 8
    2db4:	90 93 25 06 	sts	0x0625, r25
	writeByte(aChar);
    2db8:	0e 94 6c 16 	call	0x2cd8	; 0x2cd8 <writeByte>
    2dbc:	08 95       	ret

00002dbe <displaySetContrast>:
}

// display contrast 0-100 %
void displaySetContrast(uint8_t contrast)
{
    2dbe:	cf 93       	push	r28
    2dc0:	df 93       	push	r29
    2dc2:	00 d0       	rcall	.+0      	; 0x2dc4 <displaySetContrast+0x6>
    2dc4:	cd b7       	in	r28, 0x3d	; 61
    2dc6:	de b7       	in	r29, 0x3e	; 62
	uint16_t calc = 63 * contrast;
    2dc8:	2f e3       	ldi	r18, 0x3F	; 63
    2dca:	82 9f       	mul	r24, r18
    2dcc:	c0 01       	movw	r24, r0
    2dce:	11 24       	eor	r1, r1
	uint8_t binValue = (uint8_t)(calc / 100);
    2dd0:	9c 01       	movw	r18, r24
    2dd2:	36 95       	lsr	r19
    2dd4:	27 95       	ror	r18
    2dd6:	36 95       	lsr	r19
    2dd8:	27 95       	ror	r18
    2dda:	ab e7       	ldi	r26, 0x7B	; 123
    2ddc:	b4 e1       	ldi	r27, 0x14	; 20
    2dde:	0e 94 d0 1f 	call	0x3fa0	; 0x3fa0 <__umulhisi3>
    2de2:	96 95       	lsr	r25
    2de4:	87 95       	ror	r24
    2de6:	80 34       	cpi	r24, 0x40	; 64
    2de8:	08 f0       	brcs	.+2      	; 0x2dec <displaySetContrast+0x2e>
    2dea:	8f e3       	ldi	r24, 0x3F	; 63
	if (binValue > 63)
	{
		binValue = 63;
	}
	volatile uint8_t low = binValue & 0b00001111;
    2dec:	98 2f       	mov	r25, r24
    2dee:	9f 70       	andi	r25, 0x0F	; 15
    2df0:	99 83       	std	Y+1, r25	; 0x01
	volatile uint8_t high = binValue >> 4;
    2df2:	82 95       	swap	r24
    2df4:	8f 70       	andi	r24, 0x0F	; 15
    2df6:	8a 83       	std	Y+2, r24	; 0x02
	RS_INSTRUCTION;
    2df8:	88 e0       	ldi	r24, 0x08	; 8
    2dfa:	80 93 26 06 	sts	0x0626, r24
	writeByte(0x29);	// 4-Bit, 2. line, DH off, IS 01
    2dfe:	89 e2       	ldi	r24, 0x29	; 41
    2e00:	0e 94 6c 16 	call	0x2cd8	; 0x2cd8 <writeByte>
	writeByte(0x54 | high);	// ICON display off, booster on, C5 = 0, C4 = 1
    2e04:	8a 81       	ldd	r24, Y+2	; 0x02
    2e06:	84 65       	ori	r24, 0x54	; 84
    2e08:	0e 94 6c 16 	call	0x2cd8	; 0x2cd8 <writeByte>
	writeByte(0x70 | low);	// C1 = 1
    2e0c:	89 81       	ldd	r24, Y+1	; 0x01
    2e0e:	80 67       	ori	r24, 0x70	; 112
    2e10:	0e 94 6c 16 	call	0x2cd8	; 0x2cd8 <writeByte>
	writeByte(0x28);	// switch back to instruction table 0
    2e14:	88 e2       	ldi	r24, 0x28	; 40
    2e16:	0e 94 6c 16 	call	0x2cd8	; 0x2cd8 <writeByte>
}
    2e1a:	0f 90       	pop	r0
    2e1c:	0f 90       	pop	r0
    2e1e:	df 91       	pop	r29
    2e20:	cf 91       	pop	r28
    2e22:	08 95       	ret

00002e24 <port_init>:

// This function initializes all port pins.
void port_init(void)
{	
	// PA0-7 = NTC temperature sensors			= input
	PORTA_DIR = 0x00;
    2e24:	10 92 00 06 	sts	0x0600, r1
	/*
	PB0	  = S2 (switch 2)						= input (with pullup)
	PB1   = DFM (tachosignal flow meter)		= input (falling edge)
	PB2   = display enable						= output
	PB3	  = display RS							= output */
	PORTB_DIR = 0b00001100;
    2e28:	8c e0       	ldi	r24, 0x0C	; 12
    2e2a:	80 93 20 06 	sts	0x0620, r24
	PORTB_PIN0CTRL = 0b00011000;				// pullup
    2e2e:	28 e1       	ldi	r18, 0x18	; 24
    2e30:	20 93 30 06 	sts	0x0630, r18
	PORTB_PIN1CTRL = 0b00000010;				// falling edge sense
    2e34:	82 e0       	ldi	r24, 0x02	; 2
    2e36:	80 93 31 06 	sts	0x0631, r24
	PC3	  = display D5							= output
	PC4   = display D6							= output
	PC5   = display D7							= output
	PC6   = RXD (USART)							= input
	PC7   = TXD (USART)							= output */
	PORTC_DIR = 0b10111100;
    2e3a:	9c eb       	ldi	r25, 0xBC	; 188
    2e3c:	90 93 40 06 	sts	0x0640, r25
	PD3   = Analog/Pumpe (PWM)					= output
	PD4   = S1 (switch 1)						= input (pullup)
	PD5   = tacho FAN1							= input (falling edge)
	PD6   = tacho FAN2							= input (falling edge)
	PD7   = tacho FAN3							= input (falling edge) */
	PORTD_DIR = 0b00001111;
    2e40:	9f e0       	ldi	r25, 0x0F	; 15
    2e42:	90 93 60 06 	sts	0x0660, r25
	PORTD_PIN4CTRL = 0b00011000;				// pullup
    2e46:	20 93 74 06 	sts	0x0674, r18
	PORTD_PIN5CTRL = 0b00000010;				// falling edge sense
    2e4a:	80 93 75 06 	sts	0x0675, r24
	PORTD_PIN6CTRL = 0b00000010;				// falling edge sense
    2e4e:	80 93 76 06 	sts	0x0676, r24
	PORTD_PIN7CTRL = 0b00000010;				// falling edge sense
    2e52:	80 93 77 06 	sts	0x0677, r24
	/*
	PE0   = display backlight (PWM)				= output
	PE1   = FAN1 (PWM)							= output
	PE2   = FAN2 (PWM)							= output
	PE3   = FAN3 (PWM)							= output */
	PORTE_DIR = 0b00001111;
    2e56:	90 93 80 06 	sts	0x0680, r25
		
	/*
	PR0   = beeper								= output
	PR1   = 1Wire BUS (DS18S20)					= input/output	*/
	PORTR_DIR = 0b00000001;		
    2e5a:	81 e0       	ldi	r24, 0x01	; 1
    2e5c:	80 93 e0 07 	sts	0x07E0, r24
    2e60:	08 95       	ret

00002e62 <serialport_write>:
static volatile uint8_t rxd_point_head = 0;							/**< pointer offset to the next position to write in receive buffer */


// This function add an array to the transmit buffer and control the DRE interrupt.
void serialport_write(uint8_t *anArray, uint8_t arrayLength)
{	
    2e62:	cf 93       	push	r28
    2e64:	df 93       	push	r29
	uint8_t counter;												// the count variable over the array length
	
	for (counter=0;counter<arrayLength;counter++)					// for each byte in the array
    2e66:	66 23       	and	r22, r22
    2e68:	e1 f0       	breq	.+56     	; 0x2ea2 <serialport_write+0x40>
    2e6a:	28 2f       	mov	r18, r24
    2e6c:	a8 2f       	mov	r26, r24
    2e6e:	b9 2f       	mov	r27, r25
	{				
		USARTC1_CTRLA &= 0b11111100;								// deactivate the DRE (data register empty) interrupt 			
    2e70:	e3 eb       	ldi	r30, 0xB3	; 179
    2e72:	f8 e0       	ldi	r31, 0x08	; 8
    2e74:	80 81       	ld	r24, Z
    2e76:	8c 7f       	andi	r24, 0xFC	; 252
    2e78:	80 83       	st	Z, r24
		*(txd_buffer+txd_point_head) = *(anArray+counter);			// add a byte from the array to the transmit buffer		
    2e7a:	c0 91 66 21 	lds	r28, 0x2166
    2e7e:	d0 e0       	ldi	r29, 0x00	; 0
    2e80:	c8 59       	subi	r28, 0x98	; 152
    2e82:	de 4d       	sbci	r29, 0xDE	; 222
    2e84:	8d 91       	ld	r24, X+
    2e86:	88 83       	st	Y, r24
		txd_point_head = 0b00111111 & (txd_point_head + 1);			// increment the last byte "pointer" and mask it for 64 to match the buffer size
    2e88:	80 91 66 21 	lds	r24, 0x2166
    2e8c:	8f 5f       	subi	r24, 0xFF	; 255
    2e8e:	8f 73       	andi	r24, 0x3F	; 63
    2e90:	80 93 66 21 	sts	0x2166, r24
		USARTC1_CTRLA |= 0b00000001;								// activate the DRE interrupt 		
    2e94:	80 81       	ld	r24, Z
    2e96:	81 60       	ori	r24, 0x01	; 1
    2e98:	80 83       	st	Z, r24
// This function add an array to the transmit buffer and control the DRE interrupt.
void serialport_write(uint8_t *anArray, uint8_t arrayLength)
{	
	uint8_t counter;												// the count variable over the array length
	
	for (counter=0;counter<arrayLength;counter++)					// for each byte in the array
    2e9a:	8a 2f       	mov	r24, r26
    2e9c:	82 1b       	sub	r24, r18
    2e9e:	86 17       	cp	r24, r22
    2ea0:	48 f3       	brcs	.-46     	; 0x2e74 <serialport_write+0x12>
		USARTC1_CTRLA &= 0b11111100;								// deactivate the DRE (data register empty) interrupt 			
		*(txd_buffer+txd_point_head) = *(anArray+counter);			// add a byte from the array to the transmit buffer		
		txd_point_head = 0b00111111 & (txd_point_head + 1);			// increment the last byte "pointer" and mask it for 64 to match the buffer size
		USARTC1_CTRLA |= 0b00000001;								// activate the DRE interrupt 		
	}			
}
    2ea2:	df 91       	pop	r29
    2ea4:	cf 91       	pop	r28
    2ea6:	08 95       	ret

00002ea8 <__vector_29>:


// This interrupt is executed, when the data register is empty. It put the next byte into the data register of the UART to transmit it.
// This interrupt is only enabled, if the transmit buffer hold at least one byte to transmit!
ISR(USARTC1_DRE_vect)
{		
    2ea8:	1f 92       	push	r1
    2eaa:	0f 92       	push	r0
    2eac:	0f b6       	in	r0, 0x3f	; 63
    2eae:	0f 92       	push	r0
    2eb0:	11 24       	eor	r1, r1
    2eb2:	8f 93       	push	r24
    2eb4:	9f 93       	push	r25
    2eb6:	ef 93       	push	r30
    2eb8:	ff 93       	push	r31
	USARTC1_DATA = txd_buffer[txd_point_tail];						// put the next byte into the data register	
    2eba:	e0 91 67 21 	lds	r30, 0x2167
    2ebe:	f0 e0       	ldi	r31, 0x00	; 0
    2ec0:	e8 59       	subi	r30, 0x98	; 152
    2ec2:	fe 4d       	sbci	r31, 0xDE	; 222
    2ec4:	80 81       	ld	r24, Z
    2ec6:	80 93 b0 08 	sts	0x08B0, r24
	txd_point_tail = 0b00111111 & (txd_point_tail + 1);				// increment the next byte pointer and mask it for 64 to match the buffer size
    2eca:	80 91 67 21 	lds	r24, 0x2167
    2ece:	8f 5f       	subi	r24, 0xFF	; 255
    2ed0:	8f 73       	andi	r24, 0x3F	; 63
    2ed2:	80 93 67 21 	sts	0x2167, r24
	
	// if the last byte is transmitting	
	if (txd_point_tail==txd_point_head){
    2ed6:	90 91 67 21 	lds	r25, 0x2167
    2eda:	80 91 66 21 	lds	r24, 0x2166
    2ede:	98 13       	cpse	r25, r24
    2ee0:	05 c0       	rjmp	.+10     	; 0x2eec <__vector_29+0x44>
		USARTC1_CTRLA &= 0b11111100;								// deactivate the DRE interrupt 		
    2ee2:	e3 eb       	ldi	r30, 0xB3	; 179
    2ee4:	f8 e0       	ldi	r31, 0x08	; 8
    2ee6:	80 81       	ld	r24, Z
    2ee8:	8c 7f       	andi	r24, 0xFC	; 252
    2eea:	80 83       	st	Z, r24
	}		
}
    2eec:	ff 91       	pop	r31
    2eee:	ef 91       	pop	r30
    2ef0:	9f 91       	pop	r25
    2ef2:	8f 91       	pop	r24
    2ef4:	0f 90       	pop	r0
    2ef6:	0f be       	out	0x3f, r0	; 63
    2ef8:	0f 90       	pop	r0
    2efa:	1f 90       	pop	r1
    2efc:	18 95       	reti

00002efe <serialport_checkSpace>:


// This function check how many space are in the transmit buffer.
uint8_t serialport_checkSpace(void)
{
	if ((USARTC1_CTRLA & 0b00000011) == 0)							// there is no data to transmit, because the interrupt is off
    2efe:	80 91 b3 08 	lds	r24, 0x08B3
    2f02:	83 70       	andi	r24, 0x03	; 3
    2f04:	79 f0       	breq	.+30     	; 0x2f24 <serialport_checkSpace+0x26>
	{
		return 64;													// so simply return 64 bytes are free
	} else if (txd_point_head == txd_point_tail)					// buffer ist complete full!
    2f06:	90 91 66 21 	lds	r25, 0x2166
    2f0a:	80 91 67 21 	lds	r24, 0x2167
    2f0e:	98 17       	cp	r25, r24
    2f10:	59 f0       	breq	.+22     	; 0x2f28 <serialport_checkSpace+0x2a>
	{
		return 0;
	} else															// calculate free buffer
	{
		return 64 - ((txd_point_head - txd_point_tail) & 0b00111111);			
    2f12:	90 91 66 21 	lds	r25, 0x2166
    2f16:	80 91 67 21 	lds	r24, 0x2167
    2f1a:	98 1b       	sub	r25, r24
    2f1c:	9f 73       	andi	r25, 0x3F	; 63
    2f1e:	80 e4       	ldi	r24, 0x40	; 64
    2f20:	89 1b       	sub	r24, r25
    2f22:	08 95       	ret
// This function check how many space are in the transmit buffer.
uint8_t serialport_checkSpace(void)
{
	if ((USARTC1_CTRLA & 0b00000011) == 0)							// there is no data to transmit, because the interrupt is off
	{
		return 64;													// so simply return 64 bytes are free
    2f24:	80 e4       	ldi	r24, 0x40	; 64
    2f26:	08 95       	ret
	} else if (txd_point_head == txd_point_tail)					// buffer ist complete full!
	{
		return 0;
    2f28:	80 e0       	ldi	r24, 0x00	; 0
	} else															// calculate free buffer
	{
		return 64 - ((txd_point_head - txd_point_tail) & 0b00111111);			
	}
}
    2f2a:	08 95       	ret

00002f2c <__vector_28>:


// This interrupt is executed, when a byte is received. It put it on the head of the receive buffer and increment the head pointer.
ISR(USARTC1_RXC_vect)
{	
    2f2c:	1f 92       	push	r1
    2f2e:	0f 92       	push	r0
    2f30:	0f b6       	in	r0, 0x3f	; 63
    2f32:	0f 92       	push	r0
    2f34:	11 24       	eor	r1, r1
    2f36:	8f 93       	push	r24
    2f38:	ef 93       	push	r30
    2f3a:	ff 93       	push	r31
	rxd_buffer[rxd_point_head] = USARTC1_DATA;						// copy byte from data register to receive buffer			
    2f3c:	e0 91 64 20 	lds	r30, 0x2064
    2f40:	f0 e0       	ldi	r31, 0x00	; 0
    2f42:	80 91 b0 08 	lds	r24, 0x08B0
    2f46:	ea 59       	subi	r30, 0x9A	; 154
    2f48:	ff 4d       	sbci	r31, 0xDF	; 223
    2f4a:	80 83       	st	Z, r24
	rxd_point_head++;												// increment the receive head pointer	
    2f4c:	80 91 64 20 	lds	r24, 0x2064
    2f50:	8f 5f       	subi	r24, 0xFF	; 255
    2f52:	80 93 64 20 	sts	0x2064, r24
}
    2f56:	ff 91       	pop	r31
    2f58:	ef 91       	pop	r30
    2f5a:	8f 91       	pop	r24
    2f5c:	0f 90       	pop	r0
    2f5e:	0f be       	out	0x3f, r0	; 63
    2f60:	0f 90       	pop	r0
    2f62:	1f 90       	pop	r1
    2f64:	18 95       	reti

00002f66 <serialport_getLastString>:
{	
	uint8_t counter;												// the count variable over the array length
	uint8_t cr_is_there = 0;										// becomes true if we found a CR
	
	// run through all filled buffer bytes and search for a CR
	for (counter=rxd_point_tail;counter!=rxd_point_head;counter++)
    2f66:	20 91 65 20 	lds	r18, 0x2065
    2f6a:	30 91 64 20 	lds	r19, 0x2064
    2f6e:	23 17       	cp	r18, r19
    2f70:	09 f4       	brne	.+2      	; 0x2f74 <serialport_getLastString+0xe>
    2f72:	59 c0       	rjmp	.+178    	; 0x3026 <__stack+0x27>
	{						
		if (rxd_buffer[counter]==13) {								// 13 == CR (carriage return)
    2f74:	e2 2f       	mov	r30, r18
    2f76:	f0 e0       	ldi	r31, 0x00	; 0
    2f78:	ea 59       	subi	r30, 0x9A	; 154
    2f7a:	ff 4d       	sbci	r31, 0xDF	; 223
    2f7c:	30 81       	ld	r19, Z
    2f7e:	3d 30       	cpi	r19, 0x0D	; 13
    2f80:	41 f4       	brne	.+16     	; 0x2f92 <serialport_getLastString+0x2c>
    2f82:	36 c0       	rjmp	.+108    	; 0x2ff0 <serialport_getLastString+0x8a>
    2f84:	e2 2f       	mov	r30, r18
    2f86:	f0 e0       	ldi	r31, 0x00	; 0
    2f88:	ea 59       	subi	r30, 0x9A	; 154
    2f8a:	ff 4d       	sbci	r31, 0xDF	; 223
    2f8c:	30 81       	ld	r19, Z
    2f8e:	3d 30       	cpi	r19, 0x0D	; 13
    2f90:	89 f1       	breq	.+98     	; 0x2ff4 <serialport_getLastString+0x8e>
{	
	uint8_t counter;												// the count variable over the array length
	uint8_t cr_is_there = 0;										// becomes true if we found a CR
	
	// run through all filled buffer bytes and search for a CR
	for (counter=rxd_point_tail;counter!=rxd_point_head;counter++)
    2f92:	2f 5f       	subi	r18, 0xFF	; 255
    2f94:	30 91 64 20 	lds	r19, 0x2064
    2f98:	32 13       	cpse	r19, r18
    2f9a:	f4 cf       	rjmp	.-24     	; 0x2f84 <serialport_getLastString+0x1e>
		
		return counter+1;											// return the received characters + '\0'
				
	} else															// we haven't found a CR
	{																
		return 0;													// nothing received to return		
    2f9c:	80 e0       	ldi	r24, 0x00	; 0
    2f9e:	08 95       	ret
	{		
		counter = 0;												// clear counter		
				
		while (rxd_buffer[rxd_point_tail]!=13)						// until we reach the CR
		{			
			*(anArray+counter) = rxd_buffer[rxd_point_tail];		// copy data to array			
    2fa0:	e0 91 65 20 	lds	r30, 0x2065
    2fa4:	f0 e0       	ldi	r31, 0x00	; 0
    2fa6:	ea 59       	subi	r30, 0x9A	; 154
    2fa8:	ff 4d       	sbci	r31, 0xDF	; 223
    2faa:	20 81       	ld	r18, Z
    2fac:	fc 01       	movw	r30, r24
    2fae:	e7 0f       	add	r30, r23
    2fb0:	f1 1d       	adc	r31, r1
    2fb2:	20 83       	st	Z, r18
			rxd_point_tail++;										// increment tail
    2fb4:	20 91 65 20 	lds	r18, 0x2065
    2fb8:	2f 5f       	subi	r18, 0xFF	; 255
    2fba:	20 93 65 20 	sts	0x2065, r18
			counter++;												// and the counter
    2fbe:	7f 5f       	subi	r23, 0xFF	; 255
			
			// If the array is full and CR is not reached!
			if ((counter == (maxLength-1)) && (rxd_buffer[rxd_point_tail]!=13))
    2fc0:	27 2f       	mov	r18, r23
    2fc2:	30 e0       	ldi	r19, 0x00	; 0
    2fc4:	24 17       	cp	r18, r20
    2fc6:	35 07       	cpc	r19, r21
    2fc8:	d1 f4       	brne	.+52     	; 0x2ffe <serialport_getLastString+0x98>
    2fca:	e0 91 65 20 	lds	r30, 0x2065
    2fce:	f0 e0       	ldi	r31, 0x00	; 0
    2fd0:	ea 59       	subi	r30, 0x9A	; 154
    2fd2:	ff 4d       	sbci	r31, 0xDF	; 223
    2fd4:	20 81       	ld	r18, Z
    2fd6:	2d 30       	cpi	r18, 0x0D	; 13
    2fd8:	91 f0       	breq	.+36     	; 0x2ffe <serialport_getLastString+0x98>
			{
				*(anArray+counter) = 0;								// add the '\0' to the end of string
    2fda:	fc 01       	movw	r30, r24
    2fdc:	e7 0f       	add	r30, r23
    2fde:	f1 1d       	adc	r31, r1
    2fe0:	10 82       	st	Z, r1
				rxd_point_tail++;									// also need to increment the tail				
    2fe2:	80 91 65 20 	lds	r24, 0x2065
    2fe6:	8f 5f       	subi	r24, 0xFF	; 255
    2fe8:	80 93 65 20 	sts	0x2065, r24
				return 0;											// return 0 (change this if you want)
    2fec:	80 e0       	ldi	r24, 0x00	; 0
    2fee:	08 95       	ret
	uint8_t cr_is_there = 0;										// becomes true if we found a CR
	
	// run through all filled buffer bytes and search for a CR
	for (counter=rxd_point_tail;counter!=rxd_point_head;counter++)
	{						
		if (rxd_buffer[counter]==13) {								// 13 == CR (carriage return)
    2ff0:	70 e0       	ldi	r23, 0x00	; 0
    2ff2:	01 c0       	rjmp	.+2      	; 0x2ff6 <serialport_getLastString+0x90>
    2ff4:	70 e0       	ldi	r23, 0x00	; 0
			*(anArray+counter) = rxd_buffer[rxd_point_tail];		// copy data to array			
			rxd_point_tail++;										// increment tail
			counter++;												// and the counter
			
			// If the array is full and CR is not reached!
			if ((counter == (maxLength-1)) && (rxd_buffer[rxd_point_tail]!=13))
    2ff6:	46 2f       	mov	r20, r22
    2ff8:	50 e0       	ldi	r21, 0x00	; 0
    2ffa:	41 50       	subi	r20, 0x01	; 1
    2ffc:	51 09       	sbc	r21, r1
	// if we have a CR
	if (cr_is_there)
	{		
		counter = 0;												// clear counter		
				
		while (rxd_buffer[rxd_point_tail]!=13)						// until we reach the CR
    2ffe:	e0 91 65 20 	lds	r30, 0x2065
    3002:	f0 e0       	ldi	r31, 0x00	; 0
    3004:	ea 59       	subi	r30, 0x9A	; 154
    3006:	ff 4d       	sbci	r31, 0xDF	; 223
    3008:	20 81       	ld	r18, Z
    300a:	2d 30       	cpi	r18, 0x0D	; 13
    300c:	49 f6       	brne	.-110    	; 0x2fa0 <serialport_getLastString+0x3a>
				rxd_point_tail++;									// also need to increment the tail				
				return 0;											// return 0 (change this if you want)
			}									
		}
				
		*(anArray+counter) = 0;										// add the '\0' to the end of string	
    300e:	fc 01       	movw	r30, r24
    3010:	e7 0f       	add	r30, r23
    3012:	f1 1d       	adc	r31, r1
    3014:	10 82       	st	Z, r1
		rxd_point_tail++;											// need to increment the tail ones more
    3016:	80 91 65 20 	lds	r24, 0x2065
    301a:	8f 5f       	subi	r24, 0xFF	; 255
    301c:	80 93 65 20 	sts	0x2065, r24
		
		return counter+1;											// return the received characters + '\0'
    3020:	87 2f       	mov	r24, r23
    3022:	8f 5f       	subi	r24, 0xFF	; 255
    3024:	08 95       	ret
				
	} else															// we haven't found a CR
	{																
		return 0;													// nothing received to return		
    3026:	80 e0       	ldi	r24, 0x00	; 0
	}	
}
    3028:	08 95       	ret

0000302a <serialport_init>:
	-4		0x1100	539.56	540		57553.96	0.08
	-5		0x1011	1079.11	1079	57605.76	0.01 (we choose this one!) 
	-6		0x1010	2158.22	2158	57605.76	0.01
	-7		0x1001	4316.44	4316	57605.76	0.01 (BSEL out of range)	*/	
	
	USARTC1_BAUDCTRLB = (0b10110000 | (1079/256));					// BSEL = 1024
    302a:	84 eb       	ldi	r24, 0xB4	; 180
    302c:	80 93 b7 08 	sts	0x08B7, r24
	USARTC1_BAUDCTRLA = (1079 % 256);								// +   55  = 1079
    3030:	87 e3       	ldi	r24, 0x37	; 55
    3032:	80 93 b6 08 	sts	0x08B6, r24
	
	USARTC1_CTRLA = USART_RXCINTLVL_HI_gc;							// set interrupt level for receive interrupt to high 
    3036:	80 e3       	ldi	r24, 0x30	; 48
    3038:	80 93 b3 08 	sts	0x08B3, r24
	USARTC1_CTRLC = USART_CHSIZE_8BIT_gc;							// use 8 Bit Modus	
    303c:	83 e0       	ldi	r24, 0x03	; 3
    303e:	80 93 b5 08 	sts	0x08B5, r24
	USARTC1_CTRLB = USART_TXEN_bm | USART_RXEN_bm; 					// enable receiver and transmitter
    3042:	88 e1       	ldi	r24, 0x18	; 24
    3044:	80 93 b4 08 	sts	0x08B4, r24
    3048:	08 95       	ret

0000304a <serialport_getLastCarriage>:


// This function read out the last received string (witch should have the carriage format) and convert it to a carriage.
// It is protected against wrong string codes. See error code table in the header. It uses the serialport_getLastString(..) function.
uint8_t serialport_getLastCarriage(CARRIAGE* aCARRIAGE)
{	
    304a:	0f 93       	push	r16
    304c:	1f 93       	push	r17
    304e:	cf 93       	push	r28
    3050:	df 93       	push	r29
    3052:	cd b7       	in	r28, 0x3d	; 61
    3054:	de b7       	in	r29, 0x3e	; 62
    3056:	65 97       	sbiw	r28, 0x15	; 21
    3058:	cd bf       	out	0x3d, r28	; 61
    305a:	de bf       	out	0x3e, r29	; 62
    305c:	8c 01       	movw	r16, r24
	uint8_t firstData = 7;											// position of the first data character 
	uint8_t countHashtag = 0;										// count the '#' 
	uint8_t thirdHashtagPosition = 0;								// position of the third '#'
	
	// use the function for receiving a string	
	stringLength = serialport_getLastString(recievedString, MAX_CARRIAGE_LENGTH);
    305e:	60 e1       	ldi	r22, 0x10	; 16
    3060:	ce 01       	movw	r24, r28
    3062:	01 96       	adiw	r24, 0x01	; 1
    3064:	0e 94 b3 17 	call	0x2f66	; 0x2f66 <serialport_getLastString>
		
	if(stringLength==0) return 1;									// error code "1" - no new carriage
    3068:	88 23       	and	r24, r24
    306a:	09 f4       	brne	.+2      	; 0x306e <serialport_getLastCarriage+0x24>
    306c:	3c c1       	rjmp	.+632    	; 0x32e6 <serialport_getLastCarriage+0x29c>
	if(stringLength<10) return 2;									// error code "2" - string is to short
    306e:	8a 30       	cpi	r24, 0x0A	; 10
    3070:	08 f4       	brcc	.+2      	; 0x3074 <serialport_getLastCarriage+0x2a>
    3072:	3b c1       	rjmp	.+630    	; 0x32ea <serialport_getLastCarriage+0x2a0>
	if(stringLength>MAX_CARRIAGE_LENGTH) return 3;					// error code "3" - string is to long!!!
    3074:	81 31       	cpi	r24, 0x11	; 17
    3076:	08 f0       	brcs	.+2      	; 0x307a <serialport_getLastCarriage+0x30>
    3078:	3a c1       	rjmp	.+628    	; 0x32ee <serialport_getLastCarriage+0x2a4>
    307a:	fe 01       	movw	r30, r28
    307c:	31 96       	adiw	r30, 0x01	; 1
    307e:	20 e0       	ldi	r18, 0x00	; 0
    3080:	30 e0       	ldi	r19, 0x00	; 0
    3082:	a0 e0       	ldi	r26, 0x00	; 0
    3084:	70 e0       	ldi	r23, 0x00	; 0
																	// this should not be possible!
	// check the format of the received string
	countHashtag = 0;		
	for(counter=0;counter<stringLength;counter++){					// for each character
		if(recievedString[counter]=='#') {							// character is a '#'
    3086:	a9 01       	movw	r20, r18
    3088:	91 91       	ld	r25, Z+
    308a:	93 32       	cpi	r25, 0x23	; 35
    308c:	09 f5       	brne	.+66     	; 0x30d0 <serialport_getLastCarriage+0x86>
			countHashtag++;
    308e:	7f 5f       	subi	r23, 0xFF	; 255
			if(countHashtag==1 && counter!=1) return 4;				// first # on wrong position
    3090:	71 30       	cpi	r23, 0x01	; 1
    3092:	19 f4       	brne	.+6      	; 0x309a <serialport_getLastCarriage+0x50>
    3094:	21 30       	cpi	r18, 0x01	; 1
    3096:	81 f0       	breq	.+32     	; 0x30b8 <serialport_getLastCarriage+0x6e>
    3098:	2c c1       	rjmp	.+600    	; 0x32f2 <serialport_getLastCarriage+0x2a8>
			if(countHashtag==2 && counter!=4) return 5;				// second # on wrong position
    309a:	72 30       	cpi	r23, 0x02	; 2
    309c:	19 f4       	brne	.+6      	; 0x30a4 <serialport_getLastCarriage+0x5a>
    309e:	24 30       	cpi	r18, 0x04	; 4
    30a0:	b9 f0       	breq	.+46     	; 0x30d0 <serialport_getLastCarriage+0x86>
    30a2:	29 c1       	rjmp	.+594    	; 0x32f6 <serialport_getLastCarriage+0x2ac>
			if(countHashtag==3 && counter<6) return 6;				// third # to early
    30a4:	73 30       	cpi	r23, 0x03	; 3
    30a6:	41 f4       	brne	.+16     	; 0x30b8 <serialport_getLastCarriage+0x6e>
    30a8:	26 30       	cpi	r18, 0x06	; 6
    30aa:	08 f4       	brcc	.+2      	; 0x30ae <serialport_getLastCarriage+0x64>
    30ac:	26 c1       	rjmp	.+588    	; 0x32fa <serialport_getLastCarriage+0x2b0>
			if(countHashtag==3 && counter>8) return 7;				// third # to late
    30ae:	29 30       	cpi	r18, 0x09	; 9
    30b0:	08 f0       	brcs	.+2      	; 0x30b4 <serialport_getLastCarriage+0x6a>
    30b2:	25 c1       	rjmp	.+586    	; 0x32fe <serialport_getLastCarriage+0x2b4>
    30b4:	a2 2f       	mov	r26, r18
    30b6:	0c c0       	rjmp	.+24     	; 0x30d0 <serialport_getLastCarriage+0x86>
			if(countHashtag==3) thirdHashtagPosition = counter;		
			if(countHashtag==5 && (counter-thirdHashtagPosition)<2) return 8;	// fourth # to early
    30b8:	75 30       	cpi	r23, 0x05	; 5
    30ba:	51 f4       	brne	.+20     	; 0x30d0 <serialport_getLastCarriage+0x86>
    30bc:	4a 1b       	sub	r20, r26
    30be:	51 09       	sbc	r21, r1
    30c0:	42 30       	cpi	r20, 0x02	; 2
    30c2:	51 05       	cpc	r21, r1
    30c4:	0c f4       	brge	.+2      	; 0x30c8 <serialport_getLastCarriage+0x7e>
    30c6:	1d c1       	rjmp	.+570    	; 0x3302 <serialport_getLastCarriage+0x2b8>
			if(countHashtag==5 && (counter-thirdHashtagPosition)>6) return 9;	// fourth # to late						
    30c8:	47 30       	cpi	r20, 0x07	; 7
    30ca:	51 05       	cpc	r21, r1
    30cc:	0c f0       	brlt	.+2      	; 0x30d0 <serialport_getLastCarriage+0x86>
    30ce:	1b c1       	rjmp	.+566    	; 0x3306 <serialport_getLastCarriage+0x2bc>
    30d0:	2f 5f       	subi	r18, 0xFF	; 255
    30d2:	3f 4f       	sbci	r19, 0xFF	; 255
	if(stringLength<10) return 2;									// error code "2" - string is to short
	if(stringLength>MAX_CARRIAGE_LENGTH) return 3;					// error code "3" - string is to long!!!
																	// this should not be possible!
	// check the format of the received string
	countHashtag = 0;		
	for(counter=0;counter<stringLength;counter++){					// for each character
    30d4:	28 17       	cp	r18, r24
    30d6:	b8 f2       	brcs	.-82     	; 0x3086 <serialport_getLastCarriage+0x3c>
			if(countHashtag==3) thirdHashtagPosition = counter;		
			if(countHashtag==5 && (counter-thirdHashtagPosition)<2) return 8;	// fourth # to early
			if(countHashtag==5 && (counter-thirdHashtagPosition)>6) return 9;	// fourth # to late						
		}					
	}
	if(countHashtag!=4) return 10;									// error code "4" - format does not match
    30d8:	74 30       	cpi	r23, 0x04	; 4
    30da:	09 f0       	breq	.+2      	; 0x30de <serialport_getLastCarriage+0x94>
    30dc:	16 c1       	rjmp	.+556    	; 0x330a <serialport_getLastCarriage+0x2c0>
	
	
	// if you reach this, the string seems to be valid!
			
	aCARRIAGE->dA = recievedString[0] - '0';						// store the DA identifier							
    30de:	89 81       	ldd	r24, Y+1	; 0x01
    30e0:	80 53       	subi	r24, 0x30	; 48
    30e2:	f8 01       	movw	r30, r16
    30e4:	80 83       	st	Z, r24
	aCARRIAGE->id = (10 * (recievedString[2] - '0') + recievedString[3] - '0');	// store the ID
    30e6:	9c 81       	ldd	r25, Y+4	; 0x04
    30e8:	90 51       	subi	r25, 0x10	; 16
    30ea:	8b 81       	ldd	r24, Y+3	; 0x03
    30ec:	88 0f       	add	r24, r24
    30ee:	28 2f       	mov	r18, r24
    30f0:	22 0f       	add	r18, r18
    30f2:	22 0f       	add	r18, r18
    30f4:	82 0f       	add	r24, r18
    30f6:	89 0f       	add	r24, r25
    30f8:	81 83       	std	Z+1, r24	; 0x01
	
	// extract the number and count its length	
	for(counter=0;counter<3;counter++){			
		if (recievedString[5+counter]=='#') break;
    30fa:	8e 81       	ldd	r24, Y+6	; 0x06
    30fc:	83 32       	cpi	r24, 0x23	; 35
    30fe:	09 f0       	breq	.+2      	; 0x3102 <serialport_getLastCarriage+0xb8>
    3100:	16 c1       	rjmp	.+556    	; 0x332e <serialport_getLastCarriage+0x2e4>
    3102:	05 c1       	rjmp	.+522    	; 0x330e <serialport_getLastCarriage+0x2c4>
			
	aCARRIAGE->dA = recievedString[0] - '0';						// store the DA identifier							
	aCARRIAGE->id = (10 * (recievedString[2] - '0') + recievedString[3] - '0');	// store the ID
	
	// extract the number and count its length	
	for(counter=0;counter<3;counter++){			
    3104:	81 e0       	ldi	r24, 0x01	; 1
    3106:	01 c0       	rjmp	.+2      	; 0x310a <serialport_getLastCarriage+0xc0>
		if (recievedString[5+counter]=='#') break;
    3108:	82 e0       	ldi	r24, 0x02	; 2
		Substring[counter] = recievedString[5+counter];			
	}
	
	// convert the number in the string to a uint_8				
	switch (counter) {
    310a:	82 30       	cpi	r24, 0x02	; 2
    310c:	c9 f0       	breq	.+50     	; 0x3140 <serialport_getLastCarriage+0xf6>
    310e:	83 30       	cpi	r24, 0x03	; 3
    3110:	29 f0       	breq	.+10     	; 0x311c <serialport_getLastCarriage+0xd2>
    3112:	81 30       	cpi	r24, 0x01	; 1
    3114:	09 f0       	breq	.+2      	; 0x3118 <serialport_getLastCarriage+0xce>
    3116:	fd c0       	rjmp	.+506    	; 0x3312 <serialport_getLastCarriage+0x2c8>
    3118:	20 c0       	rjmp	.+64     	; 0x315a <serialport_getLastCarriage+0x110>
	aCARRIAGE->id = (10 * (recievedString[2] - '0') + recievedString[3] - '0');	// store the ID
	
	// extract the number and count its length	
	for(counter=0;counter<3;counter++){			
		if (recievedString[5+counter]=='#') break;
		Substring[counter] = recievedString[5+counter];			
    311a:	8b 8b       	std	Y+19, r24	; 0x13
	// convert the number in the string to a uint_8				
	switch (counter) {
			
		case 3:														// three digits
			aCARRIAGE->index = (100 * (Substring[0] - '0'));
			aCARRIAGE->index += (10 * (Substring[1] - '0'));
    311c:	9b 89       	ldd	r25, Y+19	; 0x13
    311e:	90 5d       	subi	r25, 0xD0	; 208
	
	// convert the number in the string to a uint_8				
	switch (counter) {
			
		case 3:														// three digits
			aCARRIAGE->index = (100 * (Substring[0] - '0'));
    3120:	89 89       	ldd	r24, Y+17	; 0x11
			aCARRIAGE->index += (10 * (Substring[1] - '0'));
			aCARRIAGE->index += (Substring[2] - '0');
    3122:	f4 e6       	ldi	r31, 0x64	; 100
    3124:	8f 9f       	mul	r24, r31
    3126:	90 0d       	add	r25, r0
    3128:	11 24       	eor	r1, r1
	// convert the number in the string to a uint_8				
	switch (counter) {
			
		case 3:														// three digits
			aCARRIAGE->index = (100 * (Substring[0] - '0'));
			aCARRIAGE->index += (10 * (Substring[1] - '0'));
    312a:	8a 89       	ldd	r24, Y+18	; 0x12
    312c:	88 0f       	add	r24, r24
    312e:	28 2f       	mov	r18, r24
    3130:	22 0f       	add	r18, r18
    3132:	22 0f       	add	r18, r18
    3134:	82 0f       	add	r24, r18
			aCARRIAGE->index += (Substring[2] - '0');
    3136:	89 0f       	add	r24, r25
    3138:	f8 01       	movw	r30, r16
    313a:	82 83       	std	Z+2, r24	; 0x02
			firstData += 2;
    313c:	a9 e0       	ldi	r26, 0x09	; 9
			break;
    313e:	12 c0       	rjmp	.+36     	; 0x3164 <serialport_getLastCarriage+0x11a>
			
		case 2:														// two digits
			aCARRIAGE->index = (10 * (Substring[0] - '0'));
			aCARRIAGE->index += Substring[1] - '0';
    3140:	9a 89       	ldd	r25, Y+18	; 0x12
    3142:	90 51       	subi	r25, 0x10	; 16
			aCARRIAGE->index += (Substring[2] - '0');
			firstData += 2;
			break;
			
		case 2:														// two digits
			aCARRIAGE->index = (10 * (Substring[0] - '0'));
    3144:	89 89       	ldd	r24, Y+17	; 0x11
    3146:	88 0f       	add	r24, r24
    3148:	28 2f       	mov	r18, r24
    314a:	22 0f       	add	r18, r18
    314c:	22 0f       	add	r18, r18
    314e:	82 0f       	add	r24, r18
			aCARRIAGE->index += Substring[1] - '0';
    3150:	89 0f       	add	r24, r25
    3152:	f8 01       	movw	r30, r16
    3154:	82 83       	std	Z+2, r24	; 0x02
			firstData++;
    3156:	a8 e0       	ldi	r26, 0x08	; 8
			break;
    3158:	05 c0       	rjmp	.+10     	; 0x3164 <serialport_getLastCarriage+0x11a>
				
		case 1:														// one digit
			aCARRIAGE->index = Substring[0] - '0';
    315a:	89 89       	ldd	r24, Y+17	; 0x11
    315c:	80 53       	subi	r24, 0x30	; 48
    315e:	f8 01       	movw	r30, r16
    3160:	82 83       	std	Z+2, r24	; 0x02
{	
	uint8_t recievedString[MAX_CARRIAGE_LENGTH];					// string extracted out of the received data
	uint8_t Substring[5];											// extracted substring (hold values)
	uint8_t stringLength;									
	uint8_t counter = 0;
	uint8_t firstData = 7;											// position of the first data character 
    3162:	a7 e0       	ldi	r26, 0x07	; 7
			return 11;												// shouldn't possible
	}
		
	// extract the data and count its length
	for(counter=0;counter<5;counter++){
		if (recievedString[firstData+counter]=='#') break;
    3164:	b0 e0       	ldi	r27, 0x00	; 0
    3166:	fe 01       	movw	r30, r28
    3168:	ea 0f       	add	r30, r26
    316a:	fb 1f       	adc	r31, r27
    316c:	81 81       	ldd	r24, Z+1	; 0x01
    316e:	83 32       	cpi	r24, 0x23	; 35
    3170:	09 f0       	breq	.+2      	; 0x3174 <serialport_getLastCarriage+0x12a>
    3172:	d5 c0       	rjmp	.+426    	; 0x331e <serialport_getLastCarriage+0x2d4>
    3174:	d0 c0       	rjmp	.+416    	; 0x3316 <serialport_getLastCarriage+0x2cc>
    3176:	9d 91       	ld	r25, X+
    3178:	93 32       	cpi	r25, 0x23	; 35
    317a:	29 f0       	breq	.+10     	; 0x3186 <serialport_getLastCarriage+0x13c>
		Substring[counter] = recievedString[firstData+counter];
    317c:	91 93       	st	Z+, r25
		default:													// no digits?
			return 11;												// shouldn't possible
	}
		
	// extract the data and count its length
	for(counter=0;counter<5;counter++){
    317e:	8f 5f       	subi	r24, 0xFF	; 255
    3180:	85 30       	cpi	r24, 0x05	; 5
    3182:	c9 f7       	brne	.-14     	; 0x3176 <serialport_getLastCarriage+0x12c>
    3184:	10 c0       	rjmp	.+32     	; 0x31a6 <serialport_getLastCarriage+0x15c>
		if (recievedString[firstData+counter]=='#') break;
		Substring[counter] = recievedString[firstData+counter];
	}
	
	// convert the data in the string to a uint_16
	switch (counter) {
    3186:	83 30       	cpi	r24, 0x03	; 3
    3188:	09 f4       	brne	.+2      	; 0x318c <serialport_getLastCarriage+0x142>
    318a:	72 c0       	rjmp	.+228    	; 0x3270 <serialport_getLastCarriage+0x226>
    318c:	38 f4       	brcc	.+14     	; 0x319c <serialport_getLastCarriage+0x152>
    318e:	81 30       	cpi	r24, 0x01	; 1
    3190:	09 f4       	brne	.+2      	; 0x3194 <serialport_getLastCarriage+0x14a>
    3192:	a1 c0       	rjmp	.+322    	; 0x32d6 <serialport_getLastCarriage+0x28c>
    3194:	82 30       	cpi	r24, 0x02	; 2
    3196:	09 f0       	breq	.+2      	; 0x319a <serialport_getLastCarriage+0x150>
    3198:	c0 c0       	rjmp	.+384    	; 0x331a <serialport_getLastCarriage+0x2d0>
    319a:	88 c0       	rjmp	.+272    	; 0x32ac <serialport_getLastCarriage+0x262>
    319c:	84 30       	cpi	r24, 0x04	; 4
    319e:	e9 f1       	breq	.+122    	; 0x321a <serialport_getLastCarriage+0x1d0>
    31a0:	85 30       	cpi	r24, 0x05	; 5
    31a2:	09 f0       	breq	.+2      	; 0x31a6 <serialport_getLastCarriage+0x15c>
    31a4:	ba c0       	rjmp	.+372    	; 0x331a <serialport_getLastCarriage+0x2d0>
		case 5:														// five digits
			aCARRIAGE->data = (10000 * (Substring[0] - '0'));
			aCARRIAGE->data += (1000 * (Substring[1] - '0'));
			aCARRIAGE->data += (100 * (Substring[2] - '0'));
			aCARRIAGE->data += (10 * (Substring[3] - '0'));
			aCARRIAGE->data += (Substring[4] - '0');
    31a6:	2d 89       	ldd	r18, Y+21	; 0x15
    31a8:	30 e0       	ldi	r19, 0x00	; 0
	switch (counter) {
		
		case 5:														// five digits
			aCARRIAGE->data = (10000 * (Substring[0] - '0'));
			aCARRIAGE->data += (1000 * (Substring[1] - '0'));
			aCARRIAGE->data += (100 * (Substring[2] - '0'));
    31aa:	20 5d       	subi	r18, 0xD0	; 208
    31ac:	34 41       	sbci	r19, 0x14	; 20
    31ae:	8b 89       	ldd	r24, Y+19	; 0x13
			aCARRIAGE->data += (10 * (Substring[3] - '0'));
    31b0:	f4 e6       	ldi	r31, 0x64	; 100
    31b2:	8f 9f       	mul	r24, r31
    31b4:	20 0d       	add	r18, r0
    31b6:	31 1d       	adc	r19, r1
    31b8:	11 24       	eor	r1, r1
    31ba:	8c 89       	ldd	r24, Y+20	; 0x14
    31bc:	90 e0       	ldi	r25, 0x00	; 0
    31be:	88 0f       	add	r24, r24
    31c0:	99 1f       	adc	r25, r25
    31c2:	ac 01       	movw	r20, r24
    31c4:	44 0f       	add	r20, r20
    31c6:	55 1f       	adc	r21, r21
    31c8:	44 0f       	add	r20, r20
    31ca:	55 1f       	adc	r21, r21
    31cc:	84 0f       	add	r24, r20
    31ce:	95 1f       	adc	r25, r21
    31d0:	28 0f       	add	r18, r24
    31d2:	39 1f       	adc	r19, r25
	
	// convert the data in the string to a uint_16
	switch (counter) {
		
		case 5:														// five digits
			aCARRIAGE->data = (10000 * (Substring[0] - '0'));
    31d4:	69 89       	ldd	r22, Y+17	; 0x11
    31d6:	70 e0       	ldi	r23, 0x00	; 0
    31d8:	60 53       	subi	r22, 0x30	; 48
    31da:	71 09       	sbc	r23, r1
    31dc:	40 e1       	ldi	r20, 0x10	; 16
    31de:	57 e2       	ldi	r21, 0x27	; 39
    31e0:	64 9f       	mul	r22, r20
    31e2:	c0 01       	movw	r24, r0
    31e4:	65 9f       	mul	r22, r21
    31e6:	90 0d       	add	r25, r0
    31e8:	74 9f       	mul	r23, r20
    31ea:	90 0d       	add	r25, r0
    31ec:	11 24       	eor	r1, r1
			aCARRIAGE->data += (1000 * (Substring[1] - '0'));
			aCARRIAGE->data += (100 * (Substring[2] - '0'));
			aCARRIAGE->data += (10 * (Substring[3] - '0'));
			aCARRIAGE->data += (Substring[4] - '0');
    31ee:	28 0f       	add	r18, r24
    31f0:	39 1f       	adc	r19, r25
	// convert the data in the string to a uint_16
	switch (counter) {
		
		case 5:														// five digits
			aCARRIAGE->data = (10000 * (Substring[0] - '0'));
			aCARRIAGE->data += (1000 * (Substring[1] - '0'));
    31f2:	6a 89       	ldd	r22, Y+18	; 0x12
    31f4:	70 e0       	ldi	r23, 0x00	; 0
    31f6:	60 53       	subi	r22, 0x30	; 48
    31f8:	71 09       	sbc	r23, r1
    31fa:	48 ee       	ldi	r20, 0xE8	; 232
    31fc:	53 e0       	ldi	r21, 0x03	; 3
    31fe:	64 9f       	mul	r22, r20
    3200:	c0 01       	movw	r24, r0
    3202:	65 9f       	mul	r22, r21
    3204:	90 0d       	add	r25, r0
    3206:	74 9f       	mul	r23, r20
    3208:	90 0d       	add	r25, r0
    320a:	11 24       	eor	r1, r1
			aCARRIAGE->data += (100 * (Substring[2] - '0'));
			aCARRIAGE->data += (10 * (Substring[3] - '0'));
			aCARRIAGE->data += (Substring[4] - '0');
    320c:	82 0f       	add	r24, r18
    320e:	93 1f       	adc	r25, r19
    3210:	f8 01       	movw	r30, r16
    3212:	83 83       	std	Z+3, r24	; 0x03
    3214:	94 83       	std	Z+4, r25	; 0x04
		
		default:													// no digits?
			return 12;
	}	
		
	return 0;														// everything fine, new carriage received		
    3216:	80 e0       	ldi	r24, 0x00	; 0
			aCARRIAGE->data = (10000 * (Substring[0] - '0'));
			aCARRIAGE->data += (1000 * (Substring[1] - '0'));
			aCARRIAGE->data += (100 * (Substring[2] - '0'));
			aCARRIAGE->data += (10 * (Substring[3] - '0'));
			aCARRIAGE->data += (Substring[4] - '0');
			break;
    3218:	95 c0       	rjmp	.+298    	; 0x3344 <serialport_getLastCarriage+0x2fa>
		
		case 4:														// four digits
			aCARRIAGE->data = (1000 * (Substring[0] - '0'));
			aCARRIAGE->data += (100 * (Substring[1] - '0'));
			aCARRIAGE->data += (10 * (Substring[2] - '0'));
			aCARRIAGE->data += (Substring[3] - '0');
    321a:	2c 89       	ldd	r18, Y+20	; 0x14
    321c:	30 e0       	ldi	r19, 0x00	; 0
			break;
		
		case 4:														// four digits
			aCARRIAGE->data = (1000 * (Substring[0] - '0'));
			aCARRIAGE->data += (100 * (Substring[1] - '0'));
			aCARRIAGE->data += (10 * (Substring[2] - '0'));
    321e:	20 5d       	subi	r18, 0xD0	; 208
    3220:	34 41       	sbci	r19, 0x14	; 20
			aCARRIAGE->data += (Substring[4] - '0');
			break;
		
		case 4:														// four digits
			aCARRIAGE->data = (1000 * (Substring[0] - '0'));
			aCARRIAGE->data += (100 * (Substring[1] - '0'));
    3222:	8a 89       	ldd	r24, Y+18	; 0x12
			aCARRIAGE->data += (10 * (Substring[2] - '0'));
    3224:	f4 e6       	ldi	r31, 0x64	; 100
    3226:	8f 9f       	mul	r24, r31
    3228:	20 0d       	add	r18, r0
    322a:	31 1d       	adc	r19, r1
    322c:	11 24       	eor	r1, r1
    322e:	8b 89       	ldd	r24, Y+19	; 0x13
    3230:	90 e0       	ldi	r25, 0x00	; 0
    3232:	88 0f       	add	r24, r24
    3234:	99 1f       	adc	r25, r25
    3236:	ac 01       	movw	r20, r24
    3238:	44 0f       	add	r20, r20
    323a:	55 1f       	adc	r21, r21
    323c:	44 0f       	add	r20, r20
    323e:	55 1f       	adc	r21, r21
    3240:	84 0f       	add	r24, r20
    3242:	95 1f       	adc	r25, r21
			aCARRIAGE->data += (Substring[3] - '0');
    3244:	28 0f       	add	r18, r24
    3246:	39 1f       	adc	r19, r25
			aCARRIAGE->data += (10 * (Substring[3] - '0'));
			aCARRIAGE->data += (Substring[4] - '0');
			break;
		
		case 4:														// four digits
			aCARRIAGE->data = (1000 * (Substring[0] - '0'));
    3248:	69 89       	ldd	r22, Y+17	; 0x11
    324a:	70 e0       	ldi	r23, 0x00	; 0
    324c:	60 53       	subi	r22, 0x30	; 48
    324e:	71 09       	sbc	r23, r1
    3250:	48 ee       	ldi	r20, 0xE8	; 232
    3252:	53 e0       	ldi	r21, 0x03	; 3
    3254:	64 9f       	mul	r22, r20
    3256:	c0 01       	movw	r24, r0
    3258:	65 9f       	mul	r22, r21
    325a:	90 0d       	add	r25, r0
    325c:	74 9f       	mul	r23, r20
    325e:	90 0d       	add	r25, r0
    3260:	11 24       	eor	r1, r1
			aCARRIAGE->data += (100 * (Substring[1] - '0'));
			aCARRIAGE->data += (10 * (Substring[2] - '0'));
			aCARRIAGE->data += (Substring[3] - '0');
    3262:	82 0f       	add	r24, r18
    3264:	93 1f       	adc	r25, r19
    3266:	f8 01       	movw	r30, r16
    3268:	83 83       	std	Z+3, r24	; 0x03
    326a:	94 83       	std	Z+4, r25	; 0x04
		
		default:													// no digits?
			return 12;
	}	
		
	return 0;														// everything fine, new carriage received		
    326c:	80 e0       	ldi	r24, 0x00	; 0
		case 4:														// four digits
			aCARRIAGE->data = (1000 * (Substring[0] - '0'));
			aCARRIAGE->data += (100 * (Substring[1] - '0'));
			aCARRIAGE->data += (10 * (Substring[2] - '0'));
			aCARRIAGE->data += (Substring[3] - '0');
			break;
    326e:	6a c0       	rjmp	.+212    	; 0x3344 <serialport_getLastCarriage+0x2fa>
						
		case 3:														// three digits
			aCARRIAGE->data = (100 * (Substring[0] - '0'));
			aCARRIAGE->data += (10 * (Substring[1] - '0'));
			aCARRIAGE->data += (Substring[2] - '0');
    3270:	2b 89       	ldd	r18, Y+19	; 0x13
    3272:	30 e0       	ldi	r19, 0x00	; 0
			aCARRIAGE->data += (Substring[3] - '0');
			break;
						
		case 3:														// three digits
			aCARRIAGE->data = (100 * (Substring[0] - '0'));
			aCARRIAGE->data += (10 * (Substring[1] - '0'));
    3274:	20 51       	subi	r18, 0x10	; 16
    3276:	32 40       	sbci	r19, 0x02	; 2
    3278:	8a 89       	ldd	r24, Y+18	; 0x12
    327a:	90 e0       	ldi	r25, 0x00	; 0
    327c:	88 0f       	add	r24, r24
    327e:	99 1f       	adc	r25, r25
    3280:	ac 01       	movw	r20, r24
    3282:	44 0f       	add	r20, r20
    3284:	55 1f       	adc	r21, r21
    3286:	44 0f       	add	r20, r20
    3288:	55 1f       	adc	r21, r21
    328a:	84 0f       	add	r24, r20
    328c:	95 1f       	adc	r25, r21
			aCARRIAGE->data += (Substring[2] - '0');
    328e:	82 0f       	add	r24, r18
    3290:	93 1f       	adc	r25, r19
			aCARRIAGE->data += (10 * (Substring[2] - '0'));
			aCARRIAGE->data += (Substring[3] - '0');
			break;
						
		case 3:														// three digits
			aCARRIAGE->data = (100 * (Substring[0] - '0'));
    3292:	29 89       	ldd	r18, Y+17	; 0x11
    3294:	f4 e6       	ldi	r31, 0x64	; 100
    3296:	2f 9f       	mul	r18, r31
    3298:	80 0d       	add	r24, r0
    329a:	91 1d       	adc	r25, r1
    329c:	11 24       	eor	r1, r1
			aCARRIAGE->data += (10 * (Substring[1] - '0'));
			aCARRIAGE->data += (Substring[2] - '0');
    329e:	80 5c       	subi	r24, 0xC0	; 192
    32a0:	92 41       	sbci	r25, 0x12	; 18
    32a2:	f8 01       	movw	r30, r16
    32a4:	83 83       	std	Z+3, r24	; 0x03
    32a6:	94 83       	std	Z+4, r25	; 0x04
		
		default:													// no digits?
			return 12;
	}	
		
	return 0;														// everything fine, new carriage received		
    32a8:	80 e0       	ldi	r24, 0x00	; 0
						
		case 3:														// three digits
			aCARRIAGE->data = (100 * (Substring[0] - '0'));
			aCARRIAGE->data += (10 * (Substring[1] - '0'));
			aCARRIAGE->data += (Substring[2] - '0');
			break;
    32aa:	4c c0       	rjmp	.+152    	; 0x3344 <serialport_getLastCarriage+0x2fa>
				
		case 2:														// two digits
			aCARRIAGE->data = (10 * (Substring[0] - '0'));
			aCARRIAGE->data += Substring[1] - '0';
    32ac:	4a 89       	ldd	r20, Y+18	; 0x12
			aCARRIAGE->data += (10 * (Substring[1] - '0'));
			aCARRIAGE->data += (Substring[2] - '0');
			break;
				
		case 2:														// two digits
			aCARRIAGE->data = (10 * (Substring[0] - '0'));
    32ae:	89 89       	ldd	r24, Y+17	; 0x11
    32b0:	90 e0       	ldi	r25, 0x00	; 0
    32b2:	88 0f       	add	r24, r24
    32b4:	99 1f       	adc	r25, r25
    32b6:	9c 01       	movw	r18, r24
    32b8:	22 0f       	add	r18, r18
    32ba:	33 1f       	adc	r19, r19
    32bc:	22 0f       	add	r18, r18
    32be:	33 1f       	adc	r19, r19
    32c0:	82 0f       	add	r24, r18
    32c2:	93 1f       	adc	r25, r19
    32c4:	84 0f       	add	r24, r20
    32c6:	91 1d       	adc	r25, r1
			aCARRIAGE->data += Substring[1] - '0';
    32c8:	80 51       	subi	r24, 0x10	; 16
    32ca:	92 40       	sbci	r25, 0x02	; 2
    32cc:	f8 01       	movw	r30, r16
    32ce:	83 83       	std	Z+3, r24	; 0x03
    32d0:	94 83       	std	Z+4, r25	; 0x04
		
		default:													// no digits?
			return 12;
	}	
		
	return 0;														// everything fine, new carriage received		
    32d2:	80 e0       	ldi	r24, 0x00	; 0
			break;
				
		case 2:														// two digits
			aCARRIAGE->data = (10 * (Substring[0] - '0'));
			aCARRIAGE->data += Substring[1] - '0';
			break;
    32d4:	37 c0       	rjmp	.+110    	; 0x3344 <serialport_getLastCarriage+0x2fa>
				
		case 1:														// one digit
			aCARRIAGE->data = Substring[0] - '0';
    32d6:	89 89       	ldd	r24, Y+17	; 0x11
    32d8:	90 e0       	ldi	r25, 0x00	; 0
    32da:	c0 97       	sbiw	r24, 0x30	; 48
    32dc:	f8 01       	movw	r30, r16
    32de:	83 83       	std	Z+3, r24	; 0x03
    32e0:	94 83       	std	Z+4, r25	; 0x04
		
		default:													// no digits?
			return 12;
	}	
		
	return 0;														// everything fine, new carriage received		
    32e2:	80 e0       	ldi	r24, 0x00	; 0
			aCARRIAGE->data += Substring[1] - '0';
			break;
				
		case 1:														// one digit
			aCARRIAGE->data = Substring[0] - '0';
			break;
    32e4:	2f c0       	rjmp	.+94     	; 0x3344 <serialport_getLastCarriage+0x2fa>
	uint8_t thirdHashtagPosition = 0;								// position of the third '#'
	
	// use the function for receiving a string	
	stringLength = serialport_getLastString(recievedString, MAX_CARRIAGE_LENGTH);
		
	if(stringLength==0) return 1;									// error code "1" - no new carriage
    32e6:	81 e0       	ldi	r24, 0x01	; 1
    32e8:	2d c0       	rjmp	.+90     	; 0x3344 <serialport_getLastCarriage+0x2fa>
	if(stringLength<10) return 2;									// error code "2" - string is to short
    32ea:	82 e0       	ldi	r24, 0x02	; 2
    32ec:	2b c0       	rjmp	.+86     	; 0x3344 <serialport_getLastCarriage+0x2fa>
	if(stringLength>MAX_CARRIAGE_LENGTH) return 3;					// error code "3" - string is to long!!!
    32ee:	83 e0       	ldi	r24, 0x03	; 3
    32f0:	29 c0       	rjmp	.+82     	; 0x3344 <serialport_getLastCarriage+0x2fa>
	// check the format of the received string
	countHashtag = 0;		
	for(counter=0;counter<stringLength;counter++){					// for each character
		if(recievedString[counter]=='#') {							// character is a '#'
			countHashtag++;
			if(countHashtag==1 && counter!=1) return 4;				// first # on wrong position
    32f2:	84 e0       	ldi	r24, 0x04	; 4
    32f4:	27 c0       	rjmp	.+78     	; 0x3344 <serialport_getLastCarriage+0x2fa>
			if(countHashtag==2 && counter!=4) return 5;				// second # on wrong position
    32f6:	85 e0       	ldi	r24, 0x05	; 5
    32f8:	25 c0       	rjmp	.+74     	; 0x3344 <serialport_getLastCarriage+0x2fa>
			if(countHashtag==3 && counter<6) return 6;				// third # to early
    32fa:	86 e0       	ldi	r24, 0x06	; 6
    32fc:	23 c0       	rjmp	.+70     	; 0x3344 <serialport_getLastCarriage+0x2fa>
			if(countHashtag==3 && counter>8) return 7;				// third # to late
    32fe:	87 e0       	ldi	r24, 0x07	; 7
    3300:	21 c0       	rjmp	.+66     	; 0x3344 <serialport_getLastCarriage+0x2fa>
			if(countHashtag==3) thirdHashtagPosition = counter;		
			if(countHashtag==5 && (counter-thirdHashtagPosition)<2) return 8;	// fourth # to early
    3302:	88 e0       	ldi	r24, 0x08	; 8
    3304:	1f c0       	rjmp	.+62     	; 0x3344 <serialport_getLastCarriage+0x2fa>
			if(countHashtag==5 && (counter-thirdHashtagPosition)>6) return 9;	// fourth # to late						
    3306:	89 e0       	ldi	r24, 0x09	; 9
    3308:	1d c0       	rjmp	.+58     	; 0x3344 <serialport_getLastCarriage+0x2fa>
		}					
	}
	if(countHashtag!=4) return 10;									// error code "4" - format does not match
    330a:	8a e0       	ldi	r24, 0x0A	; 10
    330c:	1b c0       	rjmp	.+54     	; 0x3344 <serialport_getLastCarriage+0x2fa>
		case 1:														// one digit
			aCARRIAGE->index = Substring[0] - '0';
			break;
				
		default:													// no digits?
			return 11;												// shouldn't possible
    330e:	8b e0       	ldi	r24, 0x0B	; 11
    3310:	19 c0       	rjmp	.+50     	; 0x3344 <serialport_getLastCarriage+0x2fa>
    3312:	8b e0       	ldi	r24, 0x0B	; 11
    3314:	17 c0       	rjmp	.+46     	; 0x3344 <serialport_getLastCarriage+0x2fa>
		case 1:														// one digit
			aCARRIAGE->data = Substring[0] - '0';
			break;
		
		default:													// no digits?
			return 12;
    3316:	8c e0       	ldi	r24, 0x0C	; 12
    3318:	15 c0       	rjmp	.+42     	; 0x3344 <serialport_getLastCarriage+0x2fa>
    331a:	8c e0       	ldi	r24, 0x0C	; 12
    331c:	13 c0       	rjmp	.+38     	; 0x3344 <serialport_getLastCarriage+0x2fa>
	}
		
	// extract the data and count its length
	for(counter=0;counter<5;counter++){
		if (recievedString[firstData+counter]=='#') break;
		Substring[counter] = recievedString[firstData+counter];
    331e:	89 8b       	std	Y+17, r24	; 0x11
}


// This function read out the last received string (witch should have the carriage format) and convert it to a carriage.
// It is protected against wrong string codes. See error code table in the header. It uses the serialport_getLastString(..) function.
uint8_t serialport_getLastCarriage(CARRIAGE* aCARRIAGE)
    3320:	ac 0f       	add	r26, r28
    3322:	bd 1f       	adc	r27, r29
    3324:	12 96       	adiw	r26, 0x02	; 2
    3326:	fe 01       	movw	r30, r28
    3328:	72 96       	adiw	r30, 0x12	; 18
		default:													// no digits?
			return 11;												// shouldn't possible
	}
		
	// extract the data and count its length
	for(counter=0;counter<5;counter++){
    332a:	81 e0       	ldi	r24, 0x01	; 1
    332c:	24 cf       	rjmp	.-440    	; 0x3176 <serialport_getLastCarriage+0x12c>
	aCARRIAGE->id = (10 * (recievedString[2] - '0') + recievedString[3] - '0');	// store the ID
	
	// extract the number and count its length	
	for(counter=0;counter<3;counter++){			
		if (recievedString[5+counter]=='#') break;
		Substring[counter] = recievedString[5+counter];			
    332e:	89 8b       	std	Y+17, r24	; 0x11
	aCARRIAGE->dA = recievedString[0] - '0';						// store the DA identifier							
	aCARRIAGE->id = (10 * (recievedString[2] - '0') + recievedString[3] - '0');	// store the ID
	
	// extract the number and count its length	
	for(counter=0;counter<3;counter++){			
		if (recievedString[5+counter]=='#') break;
    3330:	8f 81       	ldd	r24, Y+7	; 0x07
    3332:	83 32       	cpi	r24, 0x23	; 35
    3334:	09 f4       	brne	.+2      	; 0x3338 <serialport_getLastCarriage+0x2ee>
    3336:	e6 ce       	rjmp	.-564    	; 0x3104 <serialport_getLastCarriage+0xba>
		Substring[counter] = recievedString[5+counter];			
    3338:	8a 8b       	std	Y+18, r24	; 0x12
	aCARRIAGE->dA = recievedString[0] - '0';						// store the DA identifier							
	aCARRIAGE->id = (10 * (recievedString[2] - '0') + recievedString[3] - '0');	// store the ID
	
	// extract the number and count its length	
	for(counter=0;counter<3;counter++){			
		if (recievedString[5+counter]=='#') break;
    333a:	88 85       	ldd	r24, Y+8	; 0x08
    333c:	83 32       	cpi	r24, 0x23	; 35
    333e:	09 f0       	breq	.+2      	; 0x3342 <serialport_getLastCarriage+0x2f8>
    3340:	ec ce       	rjmp	.-552    	; 0x311a <serialport_getLastCarriage+0xd0>
    3342:	e2 ce       	rjmp	.-572    	; 0x3108 <serialport_getLastCarriage+0xbe>
		default:													// no digits?
			return 12;
	}	
		
	return 0;														// everything fine, new carriage received		
}
    3344:	65 96       	adiw	r28, 0x15	; 21
    3346:	cd bf       	out	0x3d, r28	; 61
    3348:	de bf       	out	0x3e, r29	; 62
    334a:	df 91       	pop	r29
    334c:	cf 91       	pop	r28
    334e:	1f 91       	pop	r17
    3350:	0f 91       	pop	r16
    3352:	08 95       	ret

00003354 <serialport_writeCarriage>:


// This function send a carriage as string in the carriage format.
void serialport_writeCarriage(CARRIAGE* aCARRIAGE)
{
    3354:	ff 92       	push	r15
    3356:	0f 93       	push	r16
    3358:	1f 93       	push	r17
    335a:	cf 93       	push	r28
    335c:	df 93       	push	r29
    335e:	cd b7       	in	r28, 0x3d	; 61
    3360:	de b7       	in	r29, 0x3e	; 62
    3362:	60 97       	sbiw	r28, 0x10	; 16
    3364:	cd bf       	out	0x3d, r28	; 61
    3366:	de bf       	out	0x3e, r29	; 62
    3368:	fc 01       	movw	r30, r24
	uint8_t transmitString[16];
	uint8_t stringLength = 0;
	uint8_t numberDigit = 0;
	uint8_t dataDigit = 0;
	
	transmitString[0] = aCARRIAGE->dA + '0';
    336a:	80 81       	ld	r24, Z
    336c:	80 5d       	subi	r24, 0xD0	; 208
    336e:	89 83       	std	Y+1, r24	; 0x01
	transmitString[1] = '#';
    3370:	83 e2       	ldi	r24, 0x23	; 35
    3372:	8a 83       	std	Y+2, r24	; 0x02
	transmitString[2] = (aCARRIAGE->id / 10) + '0';
    3374:	91 81       	ldd	r25, Z+1	; 0x01
    3376:	2d ec       	ldi	r18, 0xCD	; 205
    3378:	92 9f       	mul	r25, r18
    337a:	21 2d       	mov	r18, r1
    337c:	11 24       	eor	r1, r1
    337e:	26 95       	lsr	r18
    3380:	26 95       	lsr	r18
    3382:	26 95       	lsr	r18
    3384:	32 2f       	mov	r19, r18
    3386:	30 5d       	subi	r19, 0xD0	; 208
    3388:	3b 83       	std	Y+3, r19	; 0x03
	transmitString[3] = (aCARRIAGE->id % 10) + '0';
    338a:	22 0f       	add	r18, r18
    338c:	32 2f       	mov	r19, r18
    338e:	33 0f       	add	r19, r19
    3390:	33 0f       	add	r19, r19
    3392:	23 0f       	add	r18, r19
    3394:	92 1b       	sub	r25, r18
    3396:	90 5d       	subi	r25, 0xD0	; 208
    3398:	9c 83       	std	Y+4, r25	; 0x04
	transmitString[4] = '#';
    339a:	8d 83       	std	Y+5, r24	; 0x05
	
	if (aCARRIAGE->index < 10)										// one digit
    339c:	82 81       	ldd	r24, Z+2	; 0x02
    339e:	8a 30       	cpi	r24, 0x0A	; 10
    33a0:	28 f4       	brcc	.+10     	; 0x33ac <serialport_writeCarriage+0x58>
	{
		numberDigit = 1;
		transmitString[5] = aCARRIAGE->index + '0';
    33a2:	80 5d       	subi	r24, 0xD0	; 208
    33a4:	8e 83       	std	Y+6, r24	; 0x06
	transmitString[3] = (aCARRIAGE->id % 10) + '0';
	transmitString[4] = '#';
	
	if (aCARRIAGE->index < 10)										// one digit
	{
		numberDigit = 1;
    33a6:	ff 24       	eor	r15, r15
    33a8:	f3 94       	inc	r15
    33aa:	41 c0       	rjmp	.+130    	; 0x342e <serialport_writeCarriage+0xda>
		transmitString[5] = aCARRIAGE->index + '0';
						
	} else if (aCARRIAGE->index < 100)								// two digits
    33ac:	84 36       	cpi	r24, 0x64	; 100
    33ae:	b0 f4       	brcc	.+44     	; 0x33dc <serialport_writeCarriage+0x88>
	{
		numberDigit = 2;
		transmitString[5] = (aCARRIAGE->index / 10) + '0';
    33b0:	9d ec       	ldi	r25, 0xCD	; 205
    33b2:	89 9f       	mul	r24, r25
    33b4:	91 2d       	mov	r25, r1
    33b6:	11 24       	eor	r1, r1
    33b8:	96 95       	lsr	r25
    33ba:	96 95       	lsr	r25
    33bc:	96 95       	lsr	r25
    33be:	29 2f       	mov	r18, r25
    33c0:	20 5d       	subi	r18, 0xD0	; 208
    33c2:	2e 83       	std	Y+6, r18	; 0x06
		transmitString[6] = (aCARRIAGE->index % 10) + '0';	
    33c4:	99 0f       	add	r25, r25
    33c6:	29 2f       	mov	r18, r25
    33c8:	22 0f       	add	r18, r18
    33ca:	22 0f       	add	r18, r18
    33cc:	92 0f       	add	r25, r18
    33ce:	89 1b       	sub	r24, r25
    33d0:	80 5d       	subi	r24, 0xD0	; 208
    33d2:	8f 83       	std	Y+7, r24	; 0x07
		numberDigit = 1;
		transmitString[5] = aCARRIAGE->index + '0';
						
	} else if (aCARRIAGE->index < 100)								// two digits
	{
		numberDigit = 2;
    33d4:	68 94       	set
    33d6:	ff 24       	eor	r15, r15
    33d8:	f1 f8       	bld	r15, 1
    33da:	29 c0       	rjmp	.+82     	; 0x342e <serialport_writeCarriage+0xda>
		transmitString[6] = (aCARRIAGE->index % 10) + '0';	
					
	} else															// three digits
	{
		numberDigit = 3;
		transmitString[5] = (aCARRIAGE->index / 100) + '0';
    33dc:	99 e2       	ldi	r25, 0x29	; 41
    33de:	89 9f       	mul	r24, r25
    33e0:	91 2d       	mov	r25, r1
    33e2:	11 24       	eor	r1, r1
    33e4:	92 95       	swap	r25
    33e6:	9f 70       	andi	r25, 0x0F	; 15
    33e8:	29 2f       	mov	r18, r25
    33ea:	20 5d       	subi	r18, 0xD0	; 208
    33ec:	2e 83       	std	Y+6, r18	; 0x06
		transmitString[6] = ((aCARRIAGE->index % 100) / 10) + '0';
    33ee:	28 2f       	mov	r18, r24
    33f0:	34 e6       	ldi	r19, 0x64	; 100
    33f2:	93 9f       	mul	r25, r19
    33f4:	20 19       	sub	r18, r0
    33f6:	11 24       	eor	r1, r1
    33f8:	9d ec       	ldi	r25, 0xCD	; 205
    33fa:	29 9f       	mul	r18, r25
    33fc:	21 2d       	mov	r18, r1
    33fe:	11 24       	eor	r1, r1
    3400:	26 95       	lsr	r18
    3402:	26 95       	lsr	r18
    3404:	26 95       	lsr	r18
    3406:	20 5d       	subi	r18, 0xD0	; 208
    3408:	2f 83       	std	Y+7, r18	; 0x07
		transmitString[7] = (aCARRIAGE->index % 10) + '0';
    340a:	89 9f       	mul	r24, r25
    340c:	91 2d       	mov	r25, r1
    340e:	11 24       	eor	r1, r1
    3410:	96 95       	lsr	r25
    3412:	96 95       	lsr	r25
    3414:	96 95       	lsr	r25
    3416:	99 0f       	add	r25, r25
    3418:	29 2f       	mov	r18, r25
    341a:	22 0f       	add	r18, r18
    341c:	22 0f       	add	r18, r18
    341e:	92 0f       	add	r25, r18
    3420:	89 1b       	sub	r24, r25
    3422:	80 5d       	subi	r24, 0xD0	; 208
    3424:	88 87       	std	Y+8, r24	; 0x08
		transmitString[5] = (aCARRIAGE->index / 10) + '0';
		transmitString[6] = (aCARRIAGE->index % 10) + '0';	
					
	} else															// three digits
	{
		numberDigit = 3;
    3426:	0f 2e       	mov	r0, r31
    3428:	f3 e0       	ldi	r31, 0x03	; 3
    342a:	ff 2e       	mov	r15, r31
    342c:	f0 2d       	mov	r31, r0
		transmitString[5] = (aCARRIAGE->index / 100) + '0';
		transmitString[6] = ((aCARRIAGE->index % 100) / 10) + '0';
		transmitString[7] = (aCARRIAGE->index % 10) + '0';
	}
	
	transmitString[numberDigit+5] = '#';
    342e:	0f 2d       	mov	r16, r15
    3430:	10 e0       	ldi	r17, 0x00	; 0
    3432:	de 01       	movw	r26, r28
    3434:	a0 0f       	add	r26, r16
    3436:	b1 1f       	adc	r27, r17
    3438:	83 e2       	ldi	r24, 0x23	; 35
    343a:	16 96       	adiw	r26, 0x06	; 6
    343c:	8c 93       	st	X, r24
    343e:	16 97       	sbiw	r26, 0x06	; 6
	
	if (aCARRIAGE->data < 10)										// one digit
    3440:	43 81       	ldd	r20, Z+3	; 0x03
    3442:	54 81       	ldd	r21, Z+4	; 0x04
    3444:	4a 30       	cpi	r20, 0x0A	; 10
    3446:	51 05       	cpc	r21, r1
    3448:	28 f4       	brcc	.+10     	; 0x3454 <serialport_writeCarriage+0x100>
	{
		dataDigit = 1;
		transmitString[numberDigit+6] = aCARRIAGE->data + '0';
    344a:	fd 01       	movw	r30, r26
    344c:	40 5d       	subi	r20, 0xD0	; 208
    344e:	47 83       	std	Z+7, r20	; 0x07
	
	transmitString[numberDigit+5] = '#';
	
	if (aCARRIAGE->data < 10)										// one digit
	{
		dataDigit = 1;
    3450:	81 e0       	ldi	r24, 0x01	; 1
    3452:	8d c1       	rjmp	.+794    	; 0x376e <serialport_writeCarriage+0x41a>
		transmitString[numberDigit+6] = aCARRIAGE->data + '0';
		
	} else if (aCARRIAGE->data < 100)								// two digits
    3454:	44 36       	cpi	r20, 0x64	; 100
    3456:	51 05       	cpc	r21, r1
    3458:	28 f5       	brcc	.+74     	; 0x34a4 <serialport_writeCarriage+0x150>
	{
		dataDigit = 2;
		transmitString[numberDigit+6] = (aCARRIAGE->data / 10) + '0';
    345a:	fe 01       	movw	r30, r28
    345c:	e0 0f       	add	r30, r16
    345e:	f1 1f       	adc	r31, r17
    3460:	9a 01       	movw	r18, r20
    3462:	ad ec       	ldi	r26, 0xCD	; 205
    3464:	bc ec       	ldi	r27, 0xCC	; 204
    3466:	0e 94 d0 1f 	call	0x3fa0	; 0x3fa0 <__umulhisi3>
    346a:	96 95       	lsr	r25
    346c:	87 95       	ror	r24
    346e:	96 95       	lsr	r25
    3470:	87 95       	ror	r24
    3472:	96 95       	lsr	r25
    3474:	87 95       	ror	r24
    3476:	28 2f       	mov	r18, r24
    3478:	20 5d       	subi	r18, 0xD0	; 208
    347a:	27 83       	std	Z+7, r18	; 0x07
		transmitString[numberDigit+7] = (aCARRIAGE->data % 10) + '0';
    347c:	fe 01       	movw	r30, r28
    347e:	e0 0f       	add	r30, r16
    3480:	f1 1f       	adc	r31, r17
    3482:	9c 01       	movw	r18, r24
    3484:	22 0f       	add	r18, r18
    3486:	33 1f       	adc	r19, r19
    3488:	88 0f       	add	r24, r24
    348a:	99 1f       	adc	r25, r25
    348c:	88 0f       	add	r24, r24
    348e:	99 1f       	adc	r25, r25
    3490:	88 0f       	add	r24, r24
    3492:	99 1f       	adc	r25, r25
    3494:	82 0f       	add	r24, r18
    3496:	93 1f       	adc	r25, r19
    3498:	48 1b       	sub	r20, r24
    349a:	59 0b       	sbc	r21, r25
    349c:	40 5d       	subi	r20, 0xD0	; 208
    349e:	40 87       	std	Z+8, r20	; 0x08
		dataDigit = 1;
		transmitString[numberDigit+6] = aCARRIAGE->data + '0';
		
	} else if (aCARRIAGE->data < 100)								// two digits
	{
		dataDigit = 2;
    34a0:	82 e0       	ldi	r24, 0x02	; 2
    34a2:	65 c1       	rjmp	.+714    	; 0x376e <serialport_writeCarriage+0x41a>
		transmitString[numberDigit+6] = (aCARRIAGE->data / 10) + '0';
		transmitString[numberDigit+7] = (aCARRIAGE->data % 10) + '0';
		
	} else if (aCARRIAGE->data < 1000)								// three digits
    34a4:	48 3e       	cpi	r20, 0xE8	; 232
    34a6:	83 e0       	ldi	r24, 0x03	; 3
    34a8:	58 07       	cpc	r21, r24
    34aa:	08 f0       	brcs	.+2      	; 0x34ae <serialport_writeCarriage+0x15a>
    34ac:	47 c0       	rjmp	.+142    	; 0x353c <serialport_writeCarriage+0x1e8>
	{
		dataDigit = 3;
		transmitString[numberDigit+6] = (aCARRIAGE->data / 100) + '0';
    34ae:	fe 01       	movw	r30, r28
    34b0:	e0 0f       	add	r30, r16
    34b2:	f1 1f       	adc	r31, r17
    34b4:	9a 01       	movw	r18, r20
    34b6:	36 95       	lsr	r19
    34b8:	27 95       	ror	r18
    34ba:	36 95       	lsr	r19
    34bc:	27 95       	ror	r18
    34be:	ab e7       	ldi	r26, 0x7B	; 123
    34c0:	b4 e1       	ldi	r27, 0x14	; 20
    34c2:	0e 94 d0 1f 	call	0x3fa0	; 0x3fa0 <__umulhisi3>
    34c6:	96 95       	lsr	r25
    34c8:	87 95       	ror	r24
    34ca:	28 2f       	mov	r18, r24
    34cc:	20 5d       	subi	r18, 0xD0	; 208
    34ce:	27 83       	std	Z+7, r18	; 0x07
		transmitString[numberDigit+7] = ((aCARRIAGE->data % 100) / 10) + '0';
    34d0:	fe 01       	movw	r30, r28
    34d2:	e0 0f       	add	r30, r16
    34d4:	f1 1f       	adc	r31, r17
    34d6:	64 e6       	ldi	r22, 0x64	; 100
    34d8:	68 9f       	mul	r22, r24
    34da:	90 01       	movw	r18, r0
    34dc:	69 9f       	mul	r22, r25
    34de:	30 0d       	add	r19, r0
    34e0:	11 24       	eor	r1, r1
    34e2:	ca 01       	movw	r24, r20
    34e4:	82 1b       	sub	r24, r18
    34e6:	93 0b       	sbc	r25, r19
    34e8:	9c 01       	movw	r18, r24
    34ea:	ad ec       	ldi	r26, 0xCD	; 205
    34ec:	bc ec       	ldi	r27, 0xCC	; 204
    34ee:	0e 94 d0 1f 	call	0x3fa0	; 0x3fa0 <__umulhisi3>
    34f2:	96 95       	lsr	r25
    34f4:	87 95       	ror	r24
    34f6:	96 95       	lsr	r25
    34f8:	87 95       	ror	r24
    34fa:	96 95       	lsr	r25
    34fc:	87 95       	ror	r24
    34fe:	80 5d       	subi	r24, 0xD0	; 208
    3500:	80 87       	std	Z+8, r24	; 0x08
		transmitString[numberDigit+8] = (aCARRIAGE->data % 10) + '0';
    3502:	fe 01       	movw	r30, r28
    3504:	e0 0f       	add	r30, r16
    3506:	f1 1f       	adc	r31, r17
    3508:	9a 01       	movw	r18, r20
    350a:	0e 94 d0 1f 	call	0x3fa0	; 0x3fa0 <__umulhisi3>
    350e:	96 95       	lsr	r25
    3510:	87 95       	ror	r24
    3512:	96 95       	lsr	r25
    3514:	87 95       	ror	r24
    3516:	96 95       	lsr	r25
    3518:	87 95       	ror	r24
    351a:	9c 01       	movw	r18, r24
    351c:	22 0f       	add	r18, r18
    351e:	33 1f       	adc	r19, r19
    3520:	88 0f       	add	r24, r24
    3522:	99 1f       	adc	r25, r25
    3524:	88 0f       	add	r24, r24
    3526:	99 1f       	adc	r25, r25
    3528:	88 0f       	add	r24, r24
    352a:	99 1f       	adc	r25, r25
    352c:	82 0f       	add	r24, r18
    352e:	93 1f       	adc	r25, r19
    3530:	48 1b       	sub	r20, r24
    3532:	59 0b       	sbc	r21, r25
    3534:	40 5d       	subi	r20, 0xD0	; 208
    3536:	41 87       	std	Z+9, r20	; 0x09
		transmitString[numberDigit+6] = (aCARRIAGE->data / 10) + '0';
		transmitString[numberDigit+7] = (aCARRIAGE->data % 10) + '0';
		
	} else if (aCARRIAGE->data < 1000)								// three digits
	{
		dataDigit = 3;
    3538:	83 e0       	ldi	r24, 0x03	; 3
    353a:	19 c1       	rjmp	.+562    	; 0x376e <serialport_writeCarriage+0x41a>
		transmitString[numberDigit+6] = (aCARRIAGE->data / 100) + '0';
		transmitString[numberDigit+7] = ((aCARRIAGE->data % 100) / 10) + '0';
		transmitString[numberDigit+8] = (aCARRIAGE->data % 10) + '0';
		
	} else if (aCARRIAGE->data < 10000)								// four digits
    353c:	40 31       	cpi	r20, 0x10	; 16
    353e:	97 e2       	ldi	r25, 0x27	; 39
    3540:	59 07       	cpc	r21, r25
    3542:	08 f0       	brcs	.+2      	; 0x3546 <serialport_writeCarriage+0x1f2>
    3544:	72 c0       	rjmp	.+228    	; 0x362a <serialport_writeCarriage+0x2d6>
	{
		dataDigit = 4;
		transmitString[numberDigit+6] = (aCARRIAGE->data / 1000) + '0';
    3546:	fe 01       	movw	r30, r28
    3548:	e0 0f       	add	r30, r16
    354a:	f1 1f       	adc	r31, r17
    354c:	9a 01       	movw	r18, r20
    354e:	36 95       	lsr	r19
    3550:	27 95       	ror	r18
    3552:	36 95       	lsr	r19
    3554:	27 95       	ror	r18
    3556:	36 95       	lsr	r19
    3558:	27 95       	ror	r18
    355a:	a5 ec       	ldi	r26, 0xC5	; 197
    355c:	b0 e2       	ldi	r27, 0x20	; 32
    355e:	0e 94 d0 1f 	call	0x3fa0	; 0x3fa0 <__umulhisi3>
    3562:	92 95       	swap	r25
    3564:	82 95       	swap	r24
    3566:	8f 70       	andi	r24, 0x0F	; 15
    3568:	89 27       	eor	r24, r25
    356a:	9f 70       	andi	r25, 0x0F	; 15
    356c:	89 27       	eor	r24, r25
    356e:	28 2f       	mov	r18, r24
    3570:	20 5d       	subi	r18, 0xD0	; 208
    3572:	27 83       	std	Z+7, r18	; 0x07
		transmitString[numberDigit+7] = ((aCARRIAGE->data % 1000) / 100) + '0';
    3574:	fe 01       	movw	r30, r28
    3576:	e0 0f       	add	r30, r16
    3578:	f1 1f       	adc	r31, r17
    357a:	68 ee       	ldi	r22, 0xE8	; 232
    357c:	73 e0       	ldi	r23, 0x03	; 3
    357e:	86 9f       	mul	r24, r22
    3580:	90 01       	movw	r18, r0
    3582:	87 9f       	mul	r24, r23
    3584:	30 0d       	add	r19, r0
    3586:	96 9f       	mul	r25, r22
    3588:	30 0d       	add	r19, r0
    358a:	11 24       	eor	r1, r1
    358c:	ca 01       	movw	r24, r20
    358e:	82 1b       	sub	r24, r18
    3590:	93 0b       	sbc	r25, r19
    3592:	9c 01       	movw	r18, r24
    3594:	36 95       	lsr	r19
    3596:	27 95       	ror	r18
    3598:	36 95       	lsr	r19
    359a:	27 95       	ror	r18
    359c:	ab e7       	ldi	r26, 0x7B	; 123
    359e:	b4 e1       	ldi	r27, 0x14	; 20
    35a0:	0e 94 d0 1f 	call	0x3fa0	; 0x3fa0 <__umulhisi3>
    35a4:	96 95       	lsr	r25
    35a6:	87 95       	ror	r24
    35a8:	80 5d       	subi	r24, 0xD0	; 208
    35aa:	80 87       	std	Z+8, r24	; 0x08
		transmitString[numberDigit+8] = ((aCARRIAGE->data % 100) / 10) + '0';
    35ac:	fe 01       	movw	r30, r28
    35ae:	e0 0f       	add	r30, r16
    35b0:	f1 1f       	adc	r31, r17
    35b2:	9a 01       	movw	r18, r20
    35b4:	36 95       	lsr	r19
    35b6:	27 95       	ror	r18
    35b8:	36 95       	lsr	r19
    35ba:	27 95       	ror	r18
    35bc:	0e 94 d0 1f 	call	0x3fa0	; 0x3fa0 <__umulhisi3>
    35c0:	96 95       	lsr	r25
    35c2:	87 95       	ror	r24
    35c4:	64 e6       	ldi	r22, 0x64	; 100
    35c6:	68 9f       	mul	r22, r24
    35c8:	90 01       	movw	r18, r0
    35ca:	69 9f       	mul	r22, r25
    35cc:	30 0d       	add	r19, r0
    35ce:	11 24       	eor	r1, r1
    35d0:	ca 01       	movw	r24, r20
    35d2:	82 1b       	sub	r24, r18
    35d4:	93 0b       	sbc	r25, r19
    35d6:	9c 01       	movw	r18, r24
    35d8:	ad ec       	ldi	r26, 0xCD	; 205
    35da:	bc ec       	ldi	r27, 0xCC	; 204
    35dc:	0e 94 d0 1f 	call	0x3fa0	; 0x3fa0 <__umulhisi3>
    35e0:	96 95       	lsr	r25
    35e2:	87 95       	ror	r24
    35e4:	96 95       	lsr	r25
    35e6:	87 95       	ror	r24
    35e8:	96 95       	lsr	r25
    35ea:	87 95       	ror	r24
    35ec:	80 5d       	subi	r24, 0xD0	; 208
    35ee:	81 87       	std	Z+9, r24	; 0x09
		transmitString[numberDigit+9] = (aCARRIAGE->data % 10) + '0';
    35f0:	fe 01       	movw	r30, r28
    35f2:	e0 0f       	add	r30, r16
    35f4:	f1 1f       	adc	r31, r17
    35f6:	9a 01       	movw	r18, r20
    35f8:	0e 94 d0 1f 	call	0x3fa0	; 0x3fa0 <__umulhisi3>
    35fc:	96 95       	lsr	r25
    35fe:	87 95       	ror	r24
    3600:	96 95       	lsr	r25
    3602:	87 95       	ror	r24
    3604:	96 95       	lsr	r25
    3606:	87 95       	ror	r24
    3608:	9c 01       	movw	r18, r24
    360a:	22 0f       	add	r18, r18
    360c:	33 1f       	adc	r19, r19
    360e:	88 0f       	add	r24, r24
    3610:	99 1f       	adc	r25, r25
    3612:	88 0f       	add	r24, r24
    3614:	99 1f       	adc	r25, r25
    3616:	88 0f       	add	r24, r24
    3618:	99 1f       	adc	r25, r25
    361a:	82 0f       	add	r24, r18
    361c:	93 1f       	adc	r25, r19
    361e:	48 1b       	sub	r20, r24
    3620:	59 0b       	sbc	r21, r25
    3622:	40 5d       	subi	r20, 0xD0	; 208
    3624:	42 87       	std	Z+10, r20	; 0x0a
		transmitString[numberDigit+7] = ((aCARRIAGE->data % 100) / 10) + '0';
		transmitString[numberDigit+8] = (aCARRIAGE->data % 10) + '0';
		
	} else if (aCARRIAGE->data < 10000)								// four digits
	{
		dataDigit = 4;
    3626:	84 e0       	ldi	r24, 0x04	; 4
    3628:	a2 c0       	rjmp	.+324    	; 0x376e <serialport_writeCarriage+0x41a>
		transmitString[numberDigit+9] = (aCARRIAGE->data % 10) + '0';
		
	} else															// five digits
	{
		dataDigit = 5;
		transmitString[numberDigit+6] = (aCARRIAGE->data / 10000) + '0';
    362a:	fe 01       	movw	r30, r28
    362c:	e0 0f       	add	r30, r16
    362e:	f1 1f       	adc	r31, r17
    3630:	9a 01       	movw	r18, r20
    3632:	32 95       	swap	r19
    3634:	22 95       	swap	r18
    3636:	2f 70       	andi	r18, 0x0F	; 15
    3638:	23 27       	eor	r18, r19
    363a:	3f 70       	andi	r19, 0x0F	; 15
    363c:	23 27       	eor	r18, r19
    363e:	a7 e4       	ldi	r26, 0x47	; 71
    3640:	b3 e0       	ldi	r27, 0x03	; 3
    3642:	0e 94 d0 1f 	call	0x3fa0	; 0x3fa0 <__umulhisi3>
    3646:	96 95       	lsr	r25
    3648:	87 95       	ror	r24
    364a:	96 95       	lsr	r25
    364c:	87 95       	ror	r24
    364e:	96 95       	lsr	r25
    3650:	87 95       	ror	r24
    3652:	28 2f       	mov	r18, r24
    3654:	20 5d       	subi	r18, 0xD0	; 208
    3656:	27 83       	std	Z+7, r18	; 0x07
		transmitString[numberDigit+7] = ((aCARRIAGE->data % 10000) / 1000) + '0';
    3658:	fe 01       	movw	r30, r28
    365a:	e0 0f       	add	r30, r16
    365c:	f1 1f       	adc	r31, r17
    365e:	60 e1       	ldi	r22, 0x10	; 16
    3660:	77 e2       	ldi	r23, 0x27	; 39
    3662:	86 9f       	mul	r24, r22
    3664:	90 01       	movw	r18, r0
    3666:	87 9f       	mul	r24, r23
    3668:	30 0d       	add	r19, r0
    366a:	96 9f       	mul	r25, r22
    366c:	30 0d       	add	r19, r0
    366e:	11 24       	eor	r1, r1
    3670:	ca 01       	movw	r24, r20
    3672:	82 1b       	sub	r24, r18
    3674:	93 0b       	sbc	r25, r19
    3676:	9c 01       	movw	r18, r24
    3678:	36 95       	lsr	r19
    367a:	27 95       	ror	r18
    367c:	36 95       	lsr	r19
    367e:	27 95       	ror	r18
    3680:	36 95       	lsr	r19
    3682:	27 95       	ror	r18
    3684:	a5 ec       	ldi	r26, 0xC5	; 197
    3686:	b0 e2       	ldi	r27, 0x20	; 32
    3688:	0e 94 d0 1f 	call	0x3fa0	; 0x3fa0 <__umulhisi3>
    368c:	92 95       	swap	r25
    368e:	82 95       	swap	r24
    3690:	8f 70       	andi	r24, 0x0F	; 15
    3692:	89 27       	eor	r24, r25
    3694:	9f 70       	andi	r25, 0x0F	; 15
    3696:	89 27       	eor	r24, r25
    3698:	80 5d       	subi	r24, 0xD0	; 208
    369a:	80 87       	std	Z+8, r24	; 0x08
		transmitString[numberDigit+8] = ((aCARRIAGE->data % 1000) / 100) + '0';
    369c:	fe 01       	movw	r30, r28
    369e:	e0 0f       	add	r30, r16
    36a0:	f1 1f       	adc	r31, r17
    36a2:	9a 01       	movw	r18, r20
    36a4:	36 95       	lsr	r19
    36a6:	27 95       	ror	r18
    36a8:	36 95       	lsr	r19
    36aa:	27 95       	ror	r18
    36ac:	36 95       	lsr	r19
    36ae:	27 95       	ror	r18
    36b0:	0e 94 d0 1f 	call	0x3fa0	; 0x3fa0 <__umulhisi3>
    36b4:	92 95       	swap	r25
    36b6:	82 95       	swap	r24
    36b8:	8f 70       	andi	r24, 0x0F	; 15
    36ba:	89 27       	eor	r24, r25
    36bc:	9f 70       	andi	r25, 0x0F	; 15
    36be:	89 27       	eor	r24, r25
    36c0:	68 ee       	ldi	r22, 0xE8	; 232
    36c2:	73 e0       	ldi	r23, 0x03	; 3
    36c4:	86 9f       	mul	r24, r22
    36c6:	90 01       	movw	r18, r0
    36c8:	87 9f       	mul	r24, r23
    36ca:	30 0d       	add	r19, r0
    36cc:	96 9f       	mul	r25, r22
    36ce:	30 0d       	add	r19, r0
    36d0:	11 24       	eor	r1, r1
    36d2:	ca 01       	movw	r24, r20
    36d4:	82 1b       	sub	r24, r18
    36d6:	93 0b       	sbc	r25, r19
    36d8:	9c 01       	movw	r18, r24
    36da:	36 95       	lsr	r19
    36dc:	27 95       	ror	r18
    36de:	36 95       	lsr	r19
    36e0:	27 95       	ror	r18
    36e2:	ab e7       	ldi	r26, 0x7B	; 123
    36e4:	b4 e1       	ldi	r27, 0x14	; 20
    36e6:	0e 94 d0 1f 	call	0x3fa0	; 0x3fa0 <__umulhisi3>
    36ea:	96 95       	lsr	r25
    36ec:	87 95       	ror	r24
    36ee:	80 5d       	subi	r24, 0xD0	; 208
    36f0:	81 87       	std	Z+9, r24	; 0x09
		transmitString[numberDigit+9] = ((aCARRIAGE->data % 100) / 10) + '0';
    36f2:	fe 01       	movw	r30, r28
    36f4:	e0 0f       	add	r30, r16
    36f6:	f1 1f       	adc	r31, r17
    36f8:	9a 01       	movw	r18, r20
    36fa:	36 95       	lsr	r19
    36fc:	27 95       	ror	r18
    36fe:	36 95       	lsr	r19
    3700:	27 95       	ror	r18
    3702:	0e 94 d0 1f 	call	0x3fa0	; 0x3fa0 <__umulhisi3>
    3706:	96 95       	lsr	r25
    3708:	87 95       	ror	r24
    370a:	64 e6       	ldi	r22, 0x64	; 100
    370c:	68 9f       	mul	r22, r24
    370e:	90 01       	movw	r18, r0
    3710:	69 9f       	mul	r22, r25
    3712:	30 0d       	add	r19, r0
    3714:	11 24       	eor	r1, r1
    3716:	ca 01       	movw	r24, r20
    3718:	82 1b       	sub	r24, r18
    371a:	93 0b       	sbc	r25, r19
    371c:	9c 01       	movw	r18, r24
    371e:	ad ec       	ldi	r26, 0xCD	; 205
    3720:	bc ec       	ldi	r27, 0xCC	; 204
    3722:	0e 94 d0 1f 	call	0x3fa0	; 0x3fa0 <__umulhisi3>
    3726:	96 95       	lsr	r25
    3728:	87 95       	ror	r24
    372a:	96 95       	lsr	r25
    372c:	87 95       	ror	r24
    372e:	96 95       	lsr	r25
    3730:	87 95       	ror	r24
    3732:	80 5d       	subi	r24, 0xD0	; 208
    3734:	82 87       	std	Z+10, r24	; 0x0a
		transmitString[numberDigit+10] = (aCARRIAGE->data % 10) + '0';
    3736:	fe 01       	movw	r30, r28
    3738:	e0 0f       	add	r30, r16
    373a:	f1 1f       	adc	r31, r17
    373c:	9a 01       	movw	r18, r20
    373e:	0e 94 d0 1f 	call	0x3fa0	; 0x3fa0 <__umulhisi3>
    3742:	96 95       	lsr	r25
    3744:	87 95       	ror	r24
    3746:	96 95       	lsr	r25
    3748:	87 95       	ror	r24
    374a:	96 95       	lsr	r25
    374c:	87 95       	ror	r24
    374e:	9c 01       	movw	r18, r24
    3750:	22 0f       	add	r18, r18
    3752:	33 1f       	adc	r19, r19
    3754:	88 0f       	add	r24, r24
    3756:	99 1f       	adc	r25, r25
    3758:	88 0f       	add	r24, r24
    375a:	99 1f       	adc	r25, r25
    375c:	88 0f       	add	r24, r24
    375e:	99 1f       	adc	r25, r25
    3760:	82 0f       	add	r24, r18
    3762:	93 1f       	adc	r25, r19
    3764:	48 1b       	sub	r20, r24
    3766:	59 0b       	sbc	r21, r25
    3768:	40 5d       	subi	r20, 0xD0	; 208
    376a:	43 87       	std	Z+11, r20	; 0x0b
		transmitString[numberDigit+8] = ((aCARRIAGE->data % 100) / 10) + '0';
		transmitString[numberDigit+9] = (aCARRIAGE->data % 10) + '0';
		
	} else															// five digits
	{
		dataDigit = 5;
    376c:	85 e0       	ldi	r24, 0x05	; 5
		transmitString[numberDigit+9] = ((aCARRIAGE->data % 100) / 10) + '0';
		transmitString[numberDigit+10] = (aCARRIAGE->data % 10) + '0';
				
	}
	
	transmitString[numberDigit+dataDigit+6] = '#';
    376e:	08 0f       	add	r16, r24
    3770:	11 1d       	adc	r17, r1
    3772:	fe 01       	movw	r30, r28
    3774:	e0 0f       	add	r30, r16
    3776:	f1 1f       	adc	r31, r17
    3778:	93 e2       	ldi	r25, 0x23	; 35
    377a:	97 83       	std	Z+7, r25	; 0x07
	transmitString[numberDigit+dataDigit+7] = 13;					// CR
    377c:	fe 01       	movw	r30, r28
    377e:	e0 0f       	add	r30, r16
    3780:	f1 1f       	adc	r31, r17
    3782:	9d e0       	ldi	r25, 0x0D	; 13
    3784:	90 87       	std	Z+8, r25	; 0x08
	
	stringLength = numberDigit + dataDigit + 8;
    3786:	9f 2d       	mov	r25, r15
    3788:	98 5f       	subi	r25, 0xF8	; 248
    378a:	f9 2e       	mov	r15, r25
    378c:	f8 0e       	add	r15, r24
	
	while (stringLength>serialport_checkSpace());					// wait until transmit buffer is free enough
    378e:	0e 94 7f 17 	call	0x2efe	; 0x2efe <serialport_checkSpace>
    3792:	8f 15       	cp	r24, r15
    3794:	e0 f3       	brcs	.-8      	; 0x378e <serialport_writeCarriage+0x43a>
	
	serialport_write(transmitString, stringLength);					// send the string		
    3796:	6f 2d       	mov	r22, r15
    3798:	ce 01       	movw	r24, r28
    379a:	01 96       	adiw	r24, 0x01	; 1
    379c:	0e 94 31 17 	call	0x2e62	; 0x2e62 <serialport_write>
}
    37a0:	60 96       	adiw	r28, 0x10	; 16
    37a2:	cd bf       	out	0x3d, r28	; 61
    37a4:	de bf       	out	0x3e, r29	; 62
    37a6:	df 91       	pop	r29
    37a8:	cf 91       	pop	r28
    37aa:	1f 91       	pop	r17
    37ac:	0f 91       	pop	r16
    37ae:	ff 90       	pop	r15
    37b0:	08 95       	ret

000037b2 <ow_bit_io>:
}

// transfer one bit of the one wire pin
static uint8_t ow_bit_io( uint8_t b)
{
	ATOMIC_BLOCK(ATOMIC_RESTORESTATE) {
    37b2:	2f b7       	in	r18, 0x3f	; 63
    return 1;
}

static __inline__ uint8_t __iCliRetVal(void)
{
    cli();
    37b4:	f8 94       	cli

		OW_DIR_OUT();    // drive bus low
    37b6:	e0 ee       	ldi	r30, 0xE0	; 224
    37b8:	f7 e0       	ldi	r31, 0x07	; 7
    37ba:	90 81       	ld	r25, Z
    37bc:	92 60       	ori	r25, 0x02	; 2
    37be:	90 83       	st	Z, r25
	#else
		//round up by default
		__ticks_dc = (uint32_t)(ceil(fabs(__tmp)));
	#endif

	__builtin_avr_delay_cycles(__ticks_dc);
    37c0:	95 e1       	ldi	r25, 0x15	; 21
    37c2:	9a 95       	dec	r25
    37c4:	f1 f7       	brne	.-4      	; 0x37c2 <ow_bit_io+0x10>
    37c6:	00 00       	nop
		_delay_us(2);    // T_INT > 1usec accoding to timing-diagramm
		if ( b )
    37c8:	88 23       	and	r24, r24
    37ca:	19 f0       	breq	.+6      	; 0x37d2 <ow_bit_io+0x20>
		{
			OW_DIR_IN(); // to write "1" release bus, resistor pulls high
    37cc:	90 81       	ld	r25, Z
    37ce:	9d 7f       	andi	r25, 0xFD	; 253
    37d0:	90 83       	st	Z, r25
    37d2:	ea e8       	ldi	r30, 0x8A	; 138
    37d4:	ea 95       	dec	r30
    37d6:	f1 f7       	brne	.-4      	; 0x37d4 <ow_bit_io+0x22>
    37d8:	00 c0       	rjmp	.+0      	; 0x37da <ow_bit_io+0x28>
		// edge that initiated the read time slot. Therefore, the master must 
		// release the bus and then sample the bus state within 15ussec from 
		// the start of the slot."
		_delay_us(15-2-OW_CONF_DELAYOFFSET);
		
		if( OW_GET_IN() == 0 ) {
    37da:	90 91 e8 07 	lds	r25, 0x07E8
    37de:	91 ff       	sbrs	r25, 1
			b = 0;  // sample at end of read-timeslot
    37e0:	80 e0       	ldi	r24, 0x00	; 0
    37e2:	e7 e5       	ldi	r30, 0x57	; 87
    37e4:	f1 e0       	ldi	r31, 0x01	; 1
    37e6:	31 97       	sbiw	r30, 0x01	; 1
    37e8:	f1 f7       	brne	.-4      	; 0x37e6 <ow_bit_io+0x34>
    37ea:	00 c0       	rjmp	.+0      	; 0x37ec <ow_bit_io+0x3a>
    37ec:	00 00       	nop
		}
	
		_delay_us(60-15-2+OW_CONF_DELAYOFFSET);

		OW_DIR_IN();
    37ee:	e0 ee       	ldi	r30, 0xE0	; 224
    37f0:	f7 e0       	ldi	r31, 0x07	; 7
    37f2:	90 81       	ld	r25, Z
    37f4:	9d 7f       	andi	r25, 0xFD	; 253
    37f6:	90 83       	st	Z, r25
    (void)__s;
}

static __inline__ void __iRestore(const  uint8_t *__s)
{
    SREG = *__s;
    37f8:	2f bf       	out	0x3f, r18	; 63
    37fa:	fa e6       	ldi	r31, 0x6A	; 106
    37fc:	fa 95       	dec	r31
    37fe:	f1 f7       	brne	.-4      	; 0x37fc <ow_bit_io+0x4a>
    3800:	00 c0       	rjmp	.+0      	; 0x3802 <ow_bit_io+0x50>
	} /* ATOMIC_BLOCK */

	_delay_us(OW_RECOVERY_TIME); // may be increased for longer wires

	return b;
}
    3802:	08 95       	ret

00003804 <ow_reset>:
// make a reset impulse on the one wire pin
uint8_t ow_reset(void)
{
	uint8_t err;
	
	OW_OUT_LOW();
    3804:	e4 ee       	ldi	r30, 0xE4	; 228
    3806:	f7 e0       	ldi	r31, 0x07	; 7
    3808:	80 81       	ld	r24, Z
    380a:	8d 7f       	andi	r24, 0xFD	; 253
    380c:	80 83       	st	Z, r24
	OW_DIR_OUT();            // pull OW-Pin low for 480us
    380e:	e0 ee       	ldi	r30, 0xE0	; 224
    3810:	f7 e0       	ldi	r31, 0x07	; 7
    3812:	80 81       	ld	r24, Z
    3814:	82 60       	ori	r24, 0x02	; 2
    3816:	80 83       	st	Z, r24
    3818:	8f e0       	ldi	r24, 0x0F	; 15
    381a:	9f e0       	ldi	r25, 0x0F	; 15
    381c:	01 97       	sbiw	r24, 0x01	; 1
    381e:	f1 f7       	brne	.-4      	; 0x381c <ow_reset+0x18>
    3820:	00 c0       	rjmp	.+0      	; 0x3822 <ow_reset+0x1e>
    3822:	00 00       	nop
	_delay_us(482);

	ATOMIC_BLOCK(ATOMIC_RESTORESTATE) {
    3824:	9f b7       	in	r25, 0x3f	; 63
    return 1;
}

static __inline__ uint8_t __iCliRetVal(void)
{
    cli();
    3826:	f8 94       	cli
		// set Pin as input - wait for clients to pull low
		OW_DIR_IN(); // input
    3828:	80 81       	ld	r24, Z
    382a:	8d 7f       	andi	r24, 0xFD	; 253
    382c:	80 83       	st	Z, r24
    382e:	af ef       	ldi	r26, 0xFF	; 255
    3830:	b1 e0       	ldi	r27, 0x01	; 1
    3832:	11 97       	sbiw	r26, 0x01	; 1
    3834:	f1 f7       	brne	.-4      	; 0x3832 <ow_reset+0x2e>
    3836:	00 c0       	rjmp	.+0      	; 0x3838 <ow_reset+0x34>
    3838:	00 00       	nop
				
		_delay_us(64);       // was 66
		err = OW_GET_IN();   // no presence detect if err!=0: nobody pulled to low, still high
    383a:	e8 ee       	ldi	r30, 0xE8	; 232
    383c:	f7 e0       	ldi	r31, 0x07	; 7
    383e:	80 81       	ld	r24, Z
    (void)__s;
}

static __inline__ void __iRestore(const  uint8_t *__s)
{
    SREG = *__s;
    3840:	9f bf       	out	0x3f, r25	; 63
    3842:	af e0       	ldi	r26, 0x0F	; 15
    3844:	bd e0       	ldi	r27, 0x0D	; 13
    3846:	11 97       	sbiw	r26, 0x01	; 1
    3848:	f1 f7       	brne	.-4      	; 0x3846 <ow_reset+0x42>
    384a:	00 c0       	rjmp	.+0      	; 0x384c <ow_reset+0x48>
    384c:	00 00       	nop
	}
	
	// after a delay the clients should release the line
	// and input-pin gets back to high by pull-up-resistor
	_delay_us(482 - 64);       // was 480-66
	if( OW_GET_IN() == 0 ) {
    384e:	90 81       	ld	r25, Z
    3850:	91 ff       	sbrs	r25, 1
    3852:	02 c0       	rjmp	.+4      	; 0x3858 <ow_reset+0x54>
	ATOMIC_BLOCK(ATOMIC_RESTORESTATE) {
		// set Pin as input - wait for clients to pull low
		OW_DIR_IN(); // input
				
		_delay_us(64);       // was 66
		err = OW_GET_IN();   // no presence detect if err!=0: nobody pulled to low, still high
    3854:	82 70       	andi	r24, 0x02	; 2
    3856:	08 95       	ret
	
	// after a delay the clients should release the line
	// and input-pin gets back to high by pull-up-resistor
	_delay_us(482 - 64);       // was 480-66
	if( OW_GET_IN() == 0 ) {
		err = 1;             // short circuit, expected high but got low
    3858:	81 e0       	ldi	r24, 0x01	; 1
	}	
	return err;
}
    385a:	08 95       	ret

0000385c <ow_byte_wr>:
	return b;
}

// write one byte
uint8_t ow_byte_wr( uint8_t b )
{
    385c:	cf 93       	push	r28
    385e:	df 93       	push	r29
    3860:	c8 2f       	mov	r28, r24
    3862:	d8 e0       	ldi	r29, 0x08	; 8
	uint8_t i = 8, j;
	
	do {
		j = ow_bit_io( b & 1 );
    3864:	8c 2f       	mov	r24, r28
    3866:	81 70       	andi	r24, 0x01	; 1
    3868:	0e 94 d9 1b 	call	0x37b2	; 0x37b2 <ow_bit_io>
		b >>= 1;
    386c:	c6 95       	lsr	r28
		if( j ) {
    386e:	81 11       	cpse	r24, r1
			b |= 0x80;
    3870:	c0 68       	ori	r28, 0x80	; 128
    3872:	d1 50       	subi	r29, 0x01	; 1
		}
	} while( --i );
    3874:	b9 f7       	brne	.-18     	; 0x3864 <ow_byte_wr+0x8>
	
	return b;
}
    3876:	8c 2f       	mov	r24, r28
    3878:	df 91       	pop	r29
    387a:	cf 91       	pop	r28
    387c:	08 95       	ret

0000387e <ow_command>:
	return next_diff;                   // to continue search
}

// send command to a special client or to all clients (id = NULL)
static void ow_command( uint8_t command, uint8_t *id)
{
    387e:	ff 92       	push	r15
    3880:	0f 93       	push	r16
    3882:	1f 93       	push	r17
    3884:	cf 93       	push	r28
    3886:	df 93       	push	r29
    3888:	f8 2e       	mov	r15, r24
    388a:	eb 01       	movw	r28, r22
	uint8_t i;

	ow_reset();
    388c:	0e 94 02 1c 	call	0x3804	; 0x3804 <ow_reset>

	if( id ) {
    3890:	20 97       	sbiw	r28, 0x00	; 0
    3892:	69 f0       	breq	.+26     	; 0x38ae <ow_command+0x30>
		ow_byte_wr( OW_MATCH_ROM );     // to a single device
    3894:	85 e5       	ldi	r24, 0x55	; 85
    3896:	0e 94 2e 1c 	call	0x385c	; 0x385c <ow_byte_wr>
	
	return next_diff;                   // to continue search
}

// send command to a special client or to all clients (id = NULL)
static void ow_command( uint8_t command, uint8_t *id)
    389a:	8e 01       	movw	r16, r28
    389c:	08 5f       	subi	r16, 0xF8	; 248
    389e:	1f 4f       	sbci	r17, 0xFF	; 255

	if( id ) {
		ow_byte_wr( OW_MATCH_ROM );     // to a single device
		i = OW_ROMCODE_SIZE;
		do {
			ow_byte_wr( *id );
    38a0:	89 91       	ld	r24, Y+
    38a2:	0e 94 2e 1c 	call	0x385c	; 0x385c <ow_byte_wr>
			id++;
		} while( --i );
    38a6:	c0 17       	cp	r28, r16
    38a8:	d1 07       	cpc	r29, r17
    38aa:	d1 f7       	brne	.-12     	; 0x38a0 <ow_command+0x22>
    38ac:	03 c0       	rjmp	.+6      	; 0x38b4 <ow_command+0x36>
	}
	else {
		ow_byte_wr( OW_SKIP_ROM );      // to all devices
    38ae:	8c ec       	ldi	r24, 0xCC	; 204
    38b0:	0e 94 2e 1c 	call	0x385c	; 0x385c <ow_byte_wr>
	}
	ow_byte_wr( command );
    38b4:	8f 2d       	mov	r24, r15
    38b6:	0e 94 2e 1c 	call	0x385c	; 0x385c <ow_byte_wr>
}
    38ba:	df 91       	pop	r29
    38bc:	cf 91       	pop	r28
    38be:	1f 91       	pop	r17
    38c0:	0f 91       	pop	r16
    38c2:	ff 90       	pop	r15
    38c4:	08 95       	ret

000038c6 <ow_byte_rd>:
// read one byte
uint8_t ow_byte_rd( void )
{
	// read by sending only "1"s, so bus gets released
	// after the init low-pulse in every slot
	return ow_byte_wr( 0xFF );
    38c6:	8f ef       	ldi	r24, 0xFF	; 255
    38c8:	0e 94 2e 1c 	call	0x385c	; 0x385c <ow_byte_wr>
}
    38cc:	08 95       	ret

000038ce <ow_rom_search>:

// search for (next) device
uint8_t ow_rom_search( uint8_t diff, uint8_t *id )
{
    38ce:	df 92       	push	r13
    38d0:	ef 92       	push	r14
    38d2:	ff 92       	push	r15
    38d4:	0f 93       	push	r16
    38d6:	1f 93       	push	r17
    38d8:	cf 93       	push	r28
    38da:	df 93       	push	r29
    38dc:	d8 2e       	mov	r13, r24
    38de:	eb 01       	movw	r28, r22
	uint8_t i, j, next_diff;
	uint8_t b;
	
	if( ow_reset() ) {
    38e0:	0e 94 02 1c 	call	0x3804	; 0x3804 <ow_reset>
    38e4:	81 11       	cpse	r24, r1
    38e6:	27 c0       	rjmp	.+78     	; 0x3936 <ow_rom_search+0x68>
		return OW_PRESENCE_ERR;         // error, no device found <--- early exit!
	}
	
	ow_byte_wr( OW_SEARCH_ROM );        // ROM search command
    38e8:	80 ef       	ldi	r24, 0xF0	; 240
    38ea:	0e 94 2e 1c 	call	0x385c	; 0x385c <ow_byte_wr>
	next_diff = OW_LAST_DEVICE;         // unchanged on last device
    38ee:	e1 2c       	mov	r14, r1
	
	i = OW_ROMCODE_SIZE * 8;            // 8 bytes
    38f0:	10 e4       	ldi	r17, 0x40	; 64
	// after the init low-pulse in every slot
	return ow_byte_wr( 0xFF );
}

// search for (next) device
uint8_t ow_rom_search( uint8_t diff, uint8_t *id )
    38f2:	0f 2e       	mov	r0, r31
    38f4:	f8 ef       	ldi	r31, 0xF8	; 248
    38f6:	ff 2e       	mov	r15, r31
    38f8:	f0 2d       	mov	r31, r0
    38fa:	f1 0e       	add	r15, r17
	i = OW_ROMCODE_SIZE * 8;            // 8 bytes
	
	do {
		j = 8;                          // 8 bits
		do {
			b = ow_bit_io( 1 );         // read bit
    38fc:	81 e0       	ldi	r24, 0x01	; 1
    38fe:	0e 94 d9 1b 	call	0x37b2	; 0x37b2 <ow_bit_io>
    3902:	08 2f       	mov	r16, r24
			if( ow_bit_io( 1 ) ) {      // read complement bit
    3904:	81 e0       	ldi	r24, 0x01	; 1
    3906:	0e 94 d9 1b 	call	0x37b2	; 0x37b2 <ow_bit_io>
    390a:	88 23       	and	r24, r24
    390c:	19 f0       	breq	.+6      	; 0x3914 <ow_rom_search+0x46>
				if( b ) {               // 0b11
    390e:	00 23       	and	r16, r16
    3910:	d1 f0       	breq	.+52     	; 0x3946 <ow_rom_search+0x78>
    3912:	14 c0       	rjmp	.+40     	; 0x393c <ow_rom_search+0x6e>
					return OW_DATA_ERR; // data error <--- early exit!
				}
			}
			else {
				if( !b ) {              // 0b00 = 2 devices
    3914:	01 11       	cpse	r16, r1
    3916:	23 c0       	rjmp	.+70     	; 0x395e <ow_rom_search+0x90>
					if( diff > i || ((*id & 1) && diff != i) ) {
    3918:	1d 15       	cp	r17, r13
    391a:	e0 f0       	brcs	.+56     	; 0x3954 <ow_rom_search+0x86>
    391c:	88 81       	ld	r24, Y
    391e:	80 ff       	sbrs	r24, 0
    3920:	12 c0       	rjmp	.+36     	; 0x3946 <ow_rom_search+0x78>
    3922:	d1 12       	cpse	r13, r17
    3924:	1a c0       	rjmp	.+52     	; 0x395a <ow_rom_search+0x8c>
    3926:	0f c0       	rjmp	.+30     	; 0x3946 <ow_rom_search+0x78>
			*id >>= 1;
			if( b ) {
				*id |= 0x80;            // store bit
			}
			
			i--;
    3928:	11 50       	subi	r17, 0x01	; 1
			
		} while( --j );
    392a:	1f 11       	cpse	r17, r15
    392c:	e7 cf       	rjmp	.-50     	; 0x38fc <ow_rom_search+0x2e>
		
		id++;                           // next byte
    392e:	21 96       	adiw	r28, 0x01	; 1
		
	} while( i );
    3930:	11 11       	cpse	r17, r1
    3932:	df cf       	rjmp	.-66     	; 0x38f2 <ow_rom_search+0x24>
    3934:	1c c0       	rjmp	.+56     	; 0x396e <ow_rom_search+0xa0>
{
	uint8_t i, j, next_diff;
	uint8_t b;
	
	if( ow_reset() ) {
		return OW_PRESENCE_ERR;         // error, no device found <--- early exit!
    3936:	ee 24       	eor	r14, r14
    3938:	ea 94       	dec	r14
    393a:	19 c0       	rjmp	.+50     	; 0x396e <ow_rom_search+0xa0>
		j = 8;                          // 8 bits
		do {
			b = ow_bit_io( 1 );         // read bit
			if( ow_bit_io( 1 ) ) {      // read complement bit
				if( b ) {               // 0b11
					return OW_DATA_ERR; // data error <--- early exit!
    393c:	0f 2e       	mov	r0, r31
    393e:	fe ef       	ldi	r31, 0xFE	; 254
    3940:	ef 2e       	mov	r14, r31
    3942:	f0 2d       	mov	r31, r0
    3944:	14 c0       	rjmp	.+40     	; 0x396e <ow_rom_search+0xa0>
						b = 1;          // now 1
						next_diff = i;  // next pass 0
					}
				}
			}
			ow_bit_io( b );             // write bit
    3946:	80 2f       	mov	r24, r16
    3948:	0e 94 d9 1b 	call	0x37b2	; 0x37b2 <ow_bit_io>
			*id >>= 1;
    394c:	98 81       	ld	r25, Y
    394e:	96 95       	lsr	r25
    3950:	98 83       	st	Y, r25
    3952:	ea cf       	rjmp	.-44     	; 0x3928 <ow_rom_search+0x5a>
			}
			else {
				if( !b ) {              // 0b00 = 2 devices
					if( diff > i || ((*id & 1) && diff != i) ) {
						b = 1;          // now 1
						next_diff = i;  // next pass 0
    3954:	e1 2e       	mov	r14, r17
				}
			}
			else {
				if( !b ) {              // 0b00 = 2 devices
					if( diff > i || ((*id & 1) && diff != i) ) {
						b = 1;          // now 1
    3956:	01 e0       	ldi	r16, 0x01	; 1
    3958:	02 c0       	rjmp	.+4      	; 0x395e <ow_rom_search+0x90>
						next_diff = i;  // next pass 0
    395a:	e1 2e       	mov	r14, r17
				}
			}
			else {
				if( !b ) {              // 0b00 = 2 devices
					if( diff > i || ((*id & 1) && diff != i) ) {
						b = 1;          // now 1
    395c:	01 e0       	ldi	r16, 0x01	; 1
						next_diff = i;  // next pass 0
					}
				}
			}
			ow_bit_io( b );             // write bit
    395e:	80 2f       	mov	r24, r16
    3960:	0e 94 d9 1b 	call	0x37b2	; 0x37b2 <ow_bit_io>
			*id >>= 1;
    3964:	98 81       	ld	r25, Y
    3966:	96 95       	lsr	r25
			if( b ) {
				*id |= 0x80;            // store bit
    3968:	90 68       	ori	r25, 0x80	; 128
    396a:	98 83       	st	Y, r25
    396c:	dd cf       	rjmp	.-70     	; 0x3928 <ow_rom_search+0x5a>
		id++;                           // next byte
		
	} while( i );
	
	return next_diff;                   // to continue search
}
    396e:	8e 2d       	mov	r24, r14
    3970:	df 91       	pop	r29
    3972:	cf 91       	pop	r28
    3974:	1f 91       	pop	r17
    3976:	0f 91       	pop	r16
    3978:	ff 90       	pop	r15
    397a:	ef 90       	pop	r14
    397c:	df 90       	pop	r13
    397e:	08 95       	ret

00003980 <tempSensor_init>:
}



void tempSensor_init(void)
{
    3980:	cf 93       	push	r28
    3982:	df 93       	push	r29
    3984:	1f 92       	push	r1
    3986:	cd b7       	in	r28, 0x3d	; 61
    3988:	de b7       	in	r29, 0x3e	; 62
	ADCA_CTRLB = ADC_RESOLUTION_12BIT_gc;
    398a:	10 92 01 02 	sts	0x0201, r1
	ADCA_REFCTRL = ADC_REFSEL_INT1V_gc | 0x02;
    398e:	82 e0       	ldi	r24, 0x02	; 2
    3990:	80 93 02 02 	sts	0x0202, r24
	ADCA_PRESCALER = ADC_PRESCALER_DIV32_gc;
    3994:	83 e0       	ldi	r24, 0x03	; 3
    3996:	80 93 04 02 	sts	0x0204, r24
	ADCA_CH0_CTRL = ADC_CH_INPUTMODE_SINGLEENDED_gc;
    399a:	81 e0       	ldi	r24, 0x01	; 1
    399c:	80 93 20 02 	sts	0x0220, r24
	ADCA_CTRLA = ADC_ENABLE_bm;
    39a0:	80 93 00 02 	sts	0x0200, r24
	
	volatile uint8_t diff;
	
	// find sensors and store adresses
	
	diff = OW_SEARCH_FIRST;
    39a4:	8f ef       	ldi	r24, 0xFF	; 255
    39a6:	89 83       	std	Y+1, r24	; 0x01
	while ( diff != OW_LAST_DEVICE && oneWireAmount < MAXSENSORS ) {
    39a8:	89 81       	ldd	r24, Y+1	; 0x01
    39aa:	88 23       	and	r24, r24
    39ac:	09 f1       	breq	.+66     	; 0x39f0 <tempSensor_init+0x70>
    39ae:	60 91 a8 21 	lds	r22, 0x21A8
    39b2:	68 30       	cpi	r22, 0x08	; 8
    39b4:	e8 f4       	brcc	.+58     	; 0x39f0 <tempSensor_init+0x70>
		diff = ow_rom_search(diff,&oneWireAddr[oneWireAmount][0]);
    39b6:	89 81       	ldd	r24, Y+1	; 0x01
    39b8:	70 e0       	ldi	r23, 0x00	; 0
    39ba:	66 0f       	add	r22, r22
    39bc:	77 1f       	adc	r23, r23
    39be:	66 0f       	add	r22, r22
    39c0:	77 1f       	adc	r23, r23
    39c2:	66 0f       	add	r22, r22
    39c4:	77 1f       	adc	r23, r23
    39c6:	60 54       	subi	r22, 0x40	; 64
    39c8:	7e 4d       	sbci	r23, 0xDE	; 222
    39ca:	0e 94 67 1c 	call	0x38ce	; 0x38ce <ow_rom_search>
    39ce:	89 83       	std	Y+1, r24	; 0x01
		if (diff == OW_PRESENCE_ERR || diff == OW_DATA_ERR)
    39d0:	89 81       	ldd	r24, Y+1	; 0x01
    39d2:	8f 3f       	cpi	r24, 0xFF	; 255
    39d4:	69 f0       	breq	.+26     	; 0x39f0 <tempSensor_init+0x70>
    39d6:	89 81       	ldd	r24, Y+1	; 0x01
    39d8:	8e 3f       	cpi	r24, 0xFE	; 254
    39da:	51 f0       	breq	.+20     	; 0x39f0 <tempSensor_init+0x70>
		{
			break;
		}
		oneWireAmount++;
    39dc:	60 91 a8 21 	lds	r22, 0x21A8
    39e0:	6f 5f       	subi	r22, 0xFF	; 255
    39e2:	60 93 a8 21 	sts	0x21A8, r22
	volatile uint8_t diff;
	
	// find sensors and store adresses
	
	diff = OW_SEARCH_FIRST;
	while ( diff != OW_LAST_DEVICE && oneWireAmount < MAXSENSORS ) {
    39e6:	89 81       	ldd	r24, Y+1	; 0x01
    39e8:	88 23       	and	r24, r24
    39ea:	11 f0       	breq	.+4      	; 0x39f0 <tempSensor_init+0x70>
    39ec:	68 30       	cpi	r22, 0x08	; 8
    39ee:	18 f3       	brcs	.-58     	; 0x39b6 <tempSensor_init+0x36>
		{
			break;
		}
		oneWireAmount++;
	}
	if (oneWireAmount > 0)
    39f0:	80 91 a8 21 	lds	r24, 0x21A8
    39f4:	88 23       	and	r24, r24
    39f6:	29 f0       	breq	.+10     	; 0x3a02 <tempSensor_init+0x82>
	{
		ow_command(DS18X20_CONVERT_T, NULL);	// start conversation of all connected 1-wire sensors
    39f8:	60 e0       	ldi	r22, 0x00	; 0
    39fa:	70 e0       	ldi	r23, 0x00	; 0
    39fc:	84 e4       	ldi	r24, 0x44	; 68
    39fe:	0e 94 3f 1c 	call	0x387e	; 0x387e <ow_command>
	}
}
    3a02:	0f 90       	pop	r0
    3a04:	df 91       	pop	r29
    3a06:	cf 91       	pop	r28
    3a08:	08 95       	ret

00003a0a <tempSensor_getTemp>:


uint8_t tempSensor_getTemp(uint8_t channel)
{		
    3a0a:	ff 92       	push	r15
    3a0c:	0f 93       	push	r16
    3a0e:	1f 93       	push	r17
    3a10:	cf 93       	push	r28
    3a12:	df 93       	push	r29
    3a14:	08 2f       	mov	r16, r24
	uint8_t i;
		
	if (oneWireAmount > 0)		// interface the 1-wire sensors if connected
    3a16:	80 91 a8 21 	lds	r24, 0x21A8
    3a1a:	88 23       	and	r24, r24
    3a1c:	89 f1       	breq	.+98     	; 0x3a80 <tempSensor_getTemp+0x76>
	{
		if (ow_bit_io(1))		// conversation finished
    3a1e:	81 e0       	ldi	r24, 0x01	; 1
    3a20:	0e 94 d9 1b 	call	0x37b2	; 0x37b2 <ow_bit_io>
    3a24:	88 23       	and	r24, r24
    3a26:	61 f1       	breq	.+88     	; 0x3a80 <tempSensor_getTemp+0x76>
		{
			for (i=0;i<oneWireAmount;i++)			// for all connected 1-wire sensors
    3a28:	80 91 a8 21 	lds	r24, 0x21A8
    3a2c:	88 23       	and	r24, r24
    3a2e:	19 f1       	breq	.+70     	; 0x3a76 <tempSensor_getTemp+0x6c>
    3a30:	10 e0       	ldi	r17, 0x00	; 0
			
				// ow_reset();							// abort conversation (already in ow_command included)
			
				if (oneWireTemperatures[i] > 199)					// check for maximum of 99.5°C
				{
					oneWireTemperatures[i] = 199;
    3a32:	0f 2e       	mov	r0, r31
    3a34:	f7 ec       	ldi	r31, 0xC7	; 199
    3a36:	ff 2e       	mov	r15, r31
    3a38:	f0 2d       	mov	r31, r0
	{
		if (ow_bit_io(1))		// conversation finished
		{
			for (i=0;i<oneWireAmount;i++)			// for all connected 1-wire sensors
			{
				ow_command(DS18X20_READ, &oneWireAddr[i][0]);		// start reading scratchpad
    3a3a:	c1 2f       	mov	r28, r17
    3a3c:	d0 e0       	ldi	r29, 0x00	; 0
    3a3e:	be 01       	movw	r22, r28
    3a40:	66 0f       	add	r22, r22
    3a42:	77 1f       	adc	r23, r23
    3a44:	66 0f       	add	r22, r22
    3a46:	77 1f       	adc	r23, r23
    3a48:	66 0f       	add	r22, r22
    3a4a:	77 1f       	adc	r23, r23
    3a4c:	60 54       	subi	r22, 0x40	; 64
    3a4e:	7e 4d       	sbci	r23, 0xDE	; 222
    3a50:	8e eb       	ldi	r24, 0xBE	; 190
    3a52:	0e 94 3f 1c 	call	0x387e	; 0x387e <ow_command>
			
				oneWireTemperatures[i] = ow_byte_rd();	// read only the lsb of the temperature
    3a56:	0e 94 63 1c 	call	0x38c6	; 0x38c6 <ow_byte_rd>
			
				// ow_reset();							// abort conversation (already in ow_command included)
			
				if (oneWireTemperatures[i] > 199)					// check for maximum of 99.5°C
    3a5a:	88 3c       	cpi	r24, 0xC8	; 200
    3a5c:	20 f4       	brcc	.+8      	; 0x3a66 <tempSensor_getTemp+0x5c>
		{
			for (i=0;i<oneWireAmount;i++)			// for all connected 1-wire sensors
			{
				ow_command(DS18X20_READ, &oneWireAddr[i][0]);		// start reading scratchpad
			
				oneWireTemperatures[i] = ow_byte_rd();	// read only the lsb of the temperature
    3a5e:	c0 50       	subi	r28, 0x00	; 0
    3a60:	d0 4e       	sbci	r29, 0xE0	; 224
    3a62:	88 83       	st	Y, r24
    3a64:	03 c0       	rjmp	.+6      	; 0x3a6c <tempSensor_getTemp+0x62>
			
				// ow_reset();							// abort conversation (already in ow_command included)
			
				if (oneWireTemperatures[i] > 199)					// check for maximum of 99.5°C
				{
					oneWireTemperatures[i] = 199;
    3a66:	c0 50       	subi	r28, 0x00	; 0
    3a68:	d0 4e       	sbci	r29, 0xE0	; 224
    3a6a:	f8 82       	st	Y, r15
		
	if (oneWireAmount > 0)		// interface the 1-wire sensors if connected
	{
		if (ow_bit_io(1))		// conversation finished
		{
			for (i=0;i<oneWireAmount;i++)			// for all connected 1-wire sensors
    3a6c:	1f 5f       	subi	r17, 0xFF	; 255
    3a6e:	80 91 a8 21 	lds	r24, 0x21A8
    3a72:	18 17       	cp	r17, r24
    3a74:	10 f3       	brcs	.-60     	; 0x3a3a <tempSensor_getTemp+0x30>
				if (oneWireTemperatures[i] > 199)					// check for maximum of 99.5°C
				{
					oneWireTemperatures[i] = 199;
				}
			}
			ow_command(DS18X20_CONVERT_T, NULL);	// start conversation of all connected 1-wire sensors		
    3a76:	60 e0       	ldi	r22, 0x00	; 0
    3a78:	70 e0       	ldi	r23, 0x00	; 0
    3a7a:	84 e4       	ldi	r24, 0x44	; 68
    3a7c:	0e 94 3f 1c 	call	0x387e	; 0x387e <ow_command>
		}
	}		
	
	
	if (channel < 8)	// analog sensor
    3a80:	08 30       	cpi	r16, 0x08	; 8
    3a82:	20 f5       	brcc	.+72     	; 0x3acc <tempSensor_getTemp+0xc2>
	{
		uint16_t value;
		
		ADCA_CH0_MUXCTRL = (channel << 3);
    3a84:	00 0f       	add	r16, r16
    3a86:	00 0f       	add	r16, r16
    3a88:	00 0f       	add	r16, r16
    3a8a:	00 93 21 02 	sts	0x0221, r16
		ADCA_CH0_CTRL |= ADC_CH_START_bm;
    3a8e:	e0 e2       	ldi	r30, 0x20	; 32
    3a90:	f2 e0       	ldi	r31, 0x02	; 2
    3a92:	80 81       	ld	r24, Z
    3a94:	80 68       	ori	r24, 0x80	; 128
    3a96:	80 83       	st	Z, r24

		while(!ADCA_CH0_INTFLAGS);
    3a98:	e3 e2       	ldi	r30, 0x23	; 35
    3a9a:	f2 e0       	ldi	r31, 0x02	; 2
    3a9c:	80 81       	ld	r24, Z
    3a9e:	88 23       	and	r24, r24
    3aa0:	e9 f3       	breq	.-6      	; 0x3a9c <tempSensor_getTemp+0x92>
		
		ADCA_CH0_INTFLAGS = 1;
    3aa2:	81 e0       	ldi	r24, 0x01	; 1
    3aa4:	80 93 23 02 	sts	0x0223, r24
		
		value = ADCA_CH0_RES;
    3aa8:	e0 91 24 02 	lds	r30, 0x0224
    3aac:	f0 91 25 02 	lds	r31, 0x0225
		
		if (value == 4095)
    3ab0:	ef 3f       	cpi	r30, 0xFF	; 255
    3ab2:	8f e0       	ldi	r24, 0x0F	; 15
    3ab4:	f8 07       	cpc	r31, r24
    3ab6:	c9 f0       	breq	.+50     	; 0x3aea <tempSensor_getTemp+0xe0>
		{
			return 220;
		}
		else
		{
			value = (value >> 3);
    3ab8:	f6 95       	lsr	r31
    3aba:	e7 95       	ror	r30
    3abc:	f6 95       	lsr	r31
    3abe:	e7 95       	ror	r30
    3ac0:	f6 95       	lsr	r31
    3ac2:	e7 95       	ror	r30
			return pgm_read_byte(tempTable+value);
    3ac4:	ea 5d       	subi	r30, 0xDA	; 218
    3ac6:	fb 4f       	sbci	r31, 0xFB	; 251
    3ac8:	84 91       	lpm	r24, Z
    3aca:	12 c0       	rjmp	.+36     	; 0x3af0 <tempSensor_getTemp+0xe6>
		}
	}
	else				// 1-wire sensor
	{
		if (channel < (8+oneWireAmount))	// sensor is connected
    3acc:	80 2f       	mov	r24, r16
    3ace:	90 e0       	ldi	r25, 0x00	; 0
    3ad0:	20 91 a8 21 	lds	r18, 0x21A8
    3ad4:	30 e0       	ldi	r19, 0x00	; 0
    3ad6:	28 5f       	subi	r18, 0xF8	; 248
    3ad8:	3f 4f       	sbci	r19, 0xFF	; 255
    3ada:	82 17       	cp	r24, r18
    3adc:	93 07       	cpc	r25, r19
    3ade:	3c f4       	brge	.+14     	; 0x3aee <tempSensor_getTemp+0xe4>
		{
			return oneWireTemperatures[channel-8];	// latest value out of memory			
    3ae0:	fc 01       	movw	r30, r24
    3ae2:	e8 50       	subi	r30, 0x08	; 8
    3ae4:	f0 4e       	sbci	r31, 0xE0	; 224
    3ae6:	80 81       	ld	r24, Z
    3ae8:	03 c0       	rjmp	.+6      	; 0x3af0 <tempSensor_getTemp+0xe6>
		
		value = ADCA_CH0_RES;
		
		if (value == 4095)
		{
			return 220;
    3aea:	8c ed       	ldi	r24, 0xDC	; 220
    3aec:	01 c0       	rjmp	.+2      	; 0x3af0 <tempSensor_getTemp+0xe6>
		{
			return oneWireTemperatures[channel-8];	// latest value out of memory			
		} 
		else
		{
			return 220;
    3aee:	8c ed       	ldi	r24, 0xDC	; 220
		}		
	}	
}
    3af0:	df 91       	pop	r29
    3af2:	cf 91       	pop	r28
    3af4:	1f 91       	pop	r17
    3af6:	0f 91       	pop	r16
    3af8:	ff 90       	pop	r15
    3afa:	08 95       	ret

00003afc <tempSensor_getOneWireAmount>:


uint8_t tempSensor_getOneWireAmount(void)
{
	return oneWireAmount;
}
    3afc:	80 91 a8 21 	lds	r24, 0x21A8
    3b00:	08 95       	ret

00003b02 <tempSensor_getOneWireID>:


uint8_t tempSensor_getOneWireID(uint8_t index)
{
	return *(&oneWireAddr[0][0]+index);	
    3b02:	e8 2f       	mov	r30, r24
    3b04:	f0 e0       	ldi	r31, 0x00	; 0
    3b06:	e0 54       	subi	r30, 0x40	; 64
    3b08:	fe 4d       	sbci	r31, 0xDE	; 222
    3b0a:	80 81       	ld	r24, Z
    3b0c:	08 95       	ret

00003b0e <timer_init>:
// This function initializes the timers TCE0 & TCD0 for 25.000 kHz PWM.
void timer_init()
{
	// Two timers for PWM generation.
	
	TCE0_CTRLB = 0b11110101;		// all outputs enabled, dual slope PWM to TOP
    3b0e:	35 ef       	ldi	r19, 0xF5	; 245
    3b10:	30 93 01 0a 	sts	0x0A01, r19
	
	TCE0_PER = 319;					// maximum is 319 so 0 - 319 are allowed values	
    3b14:	8f e3       	ldi	r24, 0x3F	; 63
    3b16:	91 e0       	ldi	r25, 0x01	; 1
    3b18:	80 93 26 0a 	sts	0x0A26, r24
    3b1c:	90 93 27 0a 	sts	0x0A27, r25
					
	TCE0_CTRLA = 0b00000010;		// clock is system clock divided by 2 -> 16 MHz
    3b20:	22 e0       	ldi	r18, 0x02	; 2
    3b22:	20 93 00 0a 	sts	0x0A00, r18

	TCD0_CTRLB = 0b11110101;		// all outputs enabled, dual slope PWM to TOP
    3b26:	30 93 01 09 	sts	0x0901, r19
	
	TCD0_PER = 319;					// maximum is 319 so 0 - 319 are allowed values
    3b2a:	80 93 26 09 	sts	0x0926, r24
    3b2e:	90 93 27 09 	sts	0x0927, r25
	
	TCD0_CTRLA = 0b00000010;		// clock is system clock divided by 2 -> 16 MHz
    3b32:	20 93 00 09 	sts	0x0900, r18
	//0110 0 n PORTC_PINn PORTC Pin n (n= 0, 1, 2 ... or 7)
	//0110 1 n PORTD_PINn PORTD Pin n (n= 0, 1, 2 ... or 7)
	//0111 0 n PORTE_PINn PORTE Pin n (n= 0, 1, 2 ... or 7)
	//0111 1 n PORTF_PINn PORTF Pin n (n= 0, 1, 2 ... or 7)
	
	EVSYS_CH0MUX = 0b01011001;                                   // PORTB.1 Flow Meter
    3b36:	89 e5       	ldi	r24, 0x59	; 89
    3b38:	80 93 80 01 	sts	0x0180, r24
	EVSYS_CH1MUX = 0b01101101;                                   // PORTD.5 CH1
    3b3c:	8d e6       	ldi	r24, 0x6D	; 109
    3b3e:	80 93 81 01 	sts	0x0181, r24
	EVSYS_CH2MUX = 0b01101110;                                   // PORTD.6 CH2
    3b42:	8e e6       	ldi	r24, 0x6E	; 110
    3b44:	80 93 82 01 	sts	0x0182, r24
	EVSYS_CH3MUX = 0b01101111;                                   // PORTD.7 CH3
    3b48:	8f e6       	ldi	r24, 0x6F	; 111
    3b4a:	80 93 83 01 	sts	0x0183, r24
	// CH4 doesn't have a tacho signal in classic ConFLiCT.
	
	TCC0_CTRLD = 0b00101000;                                     //Event channels 0-3 selected for capture.
    3b4e:	88 e2       	ldi	r24, 0x28	; 40
    3b50:	80 93 03 08 	sts	0x0803, r24
	TCC0_CTRLB = 0b11110000;                                     //Compare channel A to D enabled
    3b54:	80 ef       	ldi	r24, 0xF0	; 240
    3b56:	80 93 01 08 	sts	0x0801, r24
	TCC0_PER = 0xFFFF;
    3b5a:	8f ef       	ldi	r24, 0xFF	; 255
    3b5c:	9f ef       	ldi	r25, 0xFF	; 255
    3b5e:	80 93 26 08 	sts	0x0826, r24
    3b62:	90 93 27 08 	sts	0x0827, r25
	TCC0_CTRLA = 0b00000110;                                     //Prescaler = 256
    3b66:	86 e0       	ldi	r24, 0x06	; 6
    3b68:	80 93 00 08 	sts	0x0800, r24
	TCC0_INTCTRLA = 0b00000011;									 // Set overflow interrupt to high priority
    3b6c:	83 e0       	ldi	r24, 0x03	; 3
    3b6e:	80 93 06 08 	sts	0x0806, r24
	TCC0_INTCTRLB = 0b10101010;									 // Set capture and compare interrupts to medium priority.
    3b72:	8a ea       	ldi	r24, 0xAA	; 170
    3b74:	80 93 07 08 	sts	0x0807, r24
	
	
	// One timer for 100 ms trigger
	
	TCC1_CTRLB = 0b00000000;									// normal mode
    3b78:	10 92 41 08 	sts	0x0841, r1
	TCC1_PER = 3124;
    3b7c:	84 e3       	ldi	r24, 0x34	; 52
    3b7e:	9c e0       	ldi	r25, 0x0C	; 12
    3b80:	80 93 66 08 	sts	0x0866, r24
    3b84:	90 93 67 08 	sts	0x0867, r25
	TCC1_INTCTRLA = 0b00000001;									// Set overflow interrupt to low priority
    3b88:	81 e0       	ldi	r24, 0x01	; 1
    3b8a:	80 93 46 08 	sts	0x0846, r24
	TCC1_CTRLA = 0b00000111;									// prescaler = 1024
    3b8e:	87 e0       	ldi	r24, 0x07	; 7
    3b90:	80 93 40 08 	sts	0x0840, r24
    3b94:	08 95       	ret

00003b96 <__vector_16>:
		
}


ISR(TCC0_CCA_vect)			// Flow meter
{
    3b96:	1f 92       	push	r1
    3b98:	0f 92       	push	r0
    3b9a:	0f b6       	in	r0, 0x3f	; 63
    3b9c:	0f 92       	push	r0
    3b9e:	11 24       	eor	r1, r1
    3ba0:	2f 93       	push	r18
    3ba2:	3f 93       	push	r19
    3ba4:	4f 93       	push	r20
    3ba6:	5f 93       	push	r21
    3ba8:	8f 93       	push	r24
    3baa:	9f 93       	push	r25
	uint16_t aValue;
	
	aValue = TCC0_CCA;		// Get the counter Value
    3bac:	80 91 28 08 	lds	r24, 0x0828
    3bb0:	90 91 29 08 	lds	r25, 0x0829
	
	if (status_flowMeter < 2)
    3bb4:	20 91 12 20 	lds	r18, 0x2012
    3bb8:	22 30       	cpi	r18, 0x02	; 2
    3bba:	58 f4       	brcc	.+22     	; 0x3bd2 <__vector_16+0x3c>
	{
		period_flowMeter = aValue - oldCount_flowMeter;
    3bbc:	20 91 bc 21 	lds	r18, 0x21BC
    3bc0:	30 91 bd 21 	lds	r19, 0x21BD
    3bc4:	ac 01       	movw	r20, r24
    3bc6:	42 1b       	sub	r20, r18
    3bc8:	53 0b       	sbc	r21, r19
    3bca:	40 93 be 21 	sts	0x21BE, r20
    3bce:	50 93 bf 21 	sts	0x21BF, r21
	}
	
	oldCount_flowMeter = aValue;
    3bd2:	80 93 bc 21 	sts	0x21BC, r24
    3bd6:	90 93 bd 21 	sts	0x21BD, r25
	
	if (status_flowMeter > 0)
    3bda:	80 91 12 20 	lds	r24, 0x2012
    3bde:	88 23       	and	r24, r24
    3be0:	29 f0       	breq	.+10     	; 0x3bec <__vector_16+0x56>
	{
		status_flowMeter --;
    3be2:	80 91 12 20 	lds	r24, 0x2012
    3be6:	81 50       	subi	r24, 0x01	; 1
    3be8:	80 93 12 20 	sts	0x2012, r24
	}	
}
    3bec:	9f 91       	pop	r25
    3bee:	8f 91       	pop	r24
    3bf0:	5f 91       	pop	r21
    3bf2:	4f 91       	pop	r20
    3bf4:	3f 91       	pop	r19
    3bf6:	2f 91       	pop	r18
    3bf8:	0f 90       	pop	r0
    3bfa:	0f be       	out	0x3f, r0	; 63
    3bfc:	0f 90       	pop	r0
    3bfe:	1f 90       	pop	r1
    3c00:	18 95       	reti

00003c02 <__vector_17>:

ISR(TCC0_CCB_vect)			// CH1
{
    3c02:	1f 92       	push	r1
    3c04:	0f 92       	push	r0
    3c06:	0f b6       	in	r0, 0x3f	; 63
    3c08:	0f 92       	push	r0
    3c0a:	11 24       	eor	r1, r1
    3c0c:	2f 93       	push	r18
    3c0e:	3f 93       	push	r19
    3c10:	4f 93       	push	r20
    3c12:	5f 93       	push	r21
    3c14:	8f 93       	push	r24
    3c16:	9f 93       	push	r25
    3c18:	ef 93       	push	r30
    3c1a:	ff 93       	push	r31
	uint16_t aValue;
	
	aValue = TCC0_CCB;		// Get the counter Value
    3c1c:	80 91 2a 08 	lds	r24, 0x082A
    3c20:	90 91 2b 08 	lds	r25, 0x082B
	
	if (status_CH[0] < 2)
    3c24:	20 91 0e 20 	lds	r18, 0x200E
    3c28:	22 30       	cpi	r18, 0x02	; 2
    3c2a:	58 f4       	brcc	.+22     	; 0x3c42 <__vector_17+0x40>
	{
		period_CH[0] = aValue - oldCount_CH[0];
    3c2c:	20 91 ab 21 	lds	r18, 0x21AB
    3c30:	30 91 ac 21 	lds	r19, 0x21AC
    3c34:	ac 01       	movw	r20, r24
    3c36:	42 1b       	sub	r20, r18
    3c38:	53 0b       	sbc	r21, r19
    3c3a:	40 93 b3 21 	sts	0x21B3, r20
    3c3e:	50 93 b4 21 	sts	0x21B4, r21
	}
	
	oldCount_CH[0] = aValue;
    3c42:	80 93 ab 21 	sts	0x21AB, r24
    3c46:	90 93 ac 21 	sts	0x21AC, r25
	
	if (status_CH[0] > 0)
    3c4a:	80 91 0e 20 	lds	r24, 0x200E
    3c4e:	88 23       	and	r24, r24
    3c50:	29 f0       	breq	.+10     	; 0x3c5c <__vector_17+0x5a>
	{
		status_CH[0] --;
    3c52:	ee e0       	ldi	r30, 0x0E	; 14
    3c54:	f0 e2       	ldi	r31, 0x20	; 32
    3c56:	80 81       	ld	r24, Z
    3c58:	81 50       	subi	r24, 0x01	; 1
    3c5a:	80 83       	st	Z, r24
	}	
}
    3c5c:	ff 91       	pop	r31
    3c5e:	ef 91       	pop	r30
    3c60:	9f 91       	pop	r25
    3c62:	8f 91       	pop	r24
    3c64:	5f 91       	pop	r21
    3c66:	4f 91       	pop	r20
    3c68:	3f 91       	pop	r19
    3c6a:	2f 91       	pop	r18
    3c6c:	0f 90       	pop	r0
    3c6e:	0f be       	out	0x3f, r0	; 63
    3c70:	0f 90       	pop	r0
    3c72:	1f 90       	pop	r1
    3c74:	18 95       	reti

00003c76 <__vector_18>:

ISR(TCC0_CCC_vect)			// CH2
{
    3c76:	1f 92       	push	r1
    3c78:	0f 92       	push	r0
    3c7a:	0f b6       	in	r0, 0x3f	; 63
    3c7c:	0f 92       	push	r0
    3c7e:	11 24       	eor	r1, r1
    3c80:	2f 93       	push	r18
    3c82:	3f 93       	push	r19
    3c84:	4f 93       	push	r20
    3c86:	5f 93       	push	r21
    3c88:	8f 93       	push	r24
    3c8a:	9f 93       	push	r25
    3c8c:	ef 93       	push	r30
    3c8e:	ff 93       	push	r31
	uint16_t aValue;
	
	aValue = TCC0_CCC;		// Get the counter Value
    3c90:	80 91 2c 08 	lds	r24, 0x082C
    3c94:	90 91 2d 08 	lds	r25, 0x082D
	
	if (status_CH[1] < 2)
    3c98:	20 91 0f 20 	lds	r18, 0x200F
    3c9c:	22 30       	cpi	r18, 0x02	; 2
    3c9e:	58 f4       	brcc	.+22     	; 0x3cb6 <__vector_18+0x40>
	{
		period_CH[1] = aValue - oldCount_CH[1];
    3ca0:	20 91 ad 21 	lds	r18, 0x21AD
    3ca4:	30 91 ae 21 	lds	r19, 0x21AE
    3ca8:	ac 01       	movw	r20, r24
    3caa:	42 1b       	sub	r20, r18
    3cac:	53 0b       	sbc	r21, r19
    3cae:	40 93 b5 21 	sts	0x21B5, r20
    3cb2:	50 93 b6 21 	sts	0x21B6, r21
	}
	
	oldCount_CH[1] = aValue;
    3cb6:	80 93 ad 21 	sts	0x21AD, r24
    3cba:	90 93 ae 21 	sts	0x21AE, r25
	
	if (status_CH[1] > 0)
    3cbe:	80 91 0f 20 	lds	r24, 0x200F
    3cc2:	88 23       	and	r24, r24
    3cc4:	29 f0       	breq	.+10     	; 0x3cd0 <__vector_18+0x5a>
	{
		status_CH[1] --;
    3cc6:	ef e0       	ldi	r30, 0x0F	; 15
    3cc8:	f0 e2       	ldi	r31, 0x20	; 32
    3cca:	80 81       	ld	r24, Z
    3ccc:	81 50       	subi	r24, 0x01	; 1
    3cce:	80 83       	st	Z, r24
	}
}
    3cd0:	ff 91       	pop	r31
    3cd2:	ef 91       	pop	r30
    3cd4:	9f 91       	pop	r25
    3cd6:	8f 91       	pop	r24
    3cd8:	5f 91       	pop	r21
    3cda:	4f 91       	pop	r20
    3cdc:	3f 91       	pop	r19
    3cde:	2f 91       	pop	r18
    3ce0:	0f 90       	pop	r0
    3ce2:	0f be       	out	0x3f, r0	; 63
    3ce4:	0f 90       	pop	r0
    3ce6:	1f 90       	pop	r1
    3ce8:	18 95       	reti

00003cea <__vector_19>:

ISR(TCC0_CCD_vect)			// CH3
{
    3cea:	1f 92       	push	r1
    3cec:	0f 92       	push	r0
    3cee:	0f b6       	in	r0, 0x3f	; 63
    3cf0:	0f 92       	push	r0
    3cf2:	11 24       	eor	r1, r1
    3cf4:	2f 93       	push	r18
    3cf6:	3f 93       	push	r19
    3cf8:	4f 93       	push	r20
    3cfa:	5f 93       	push	r21
    3cfc:	8f 93       	push	r24
    3cfe:	9f 93       	push	r25
    3d00:	ef 93       	push	r30
    3d02:	ff 93       	push	r31
	uint16_t aValue;
	
	aValue = TCC0_CCD;		// Get the counter Value
    3d04:	80 91 2e 08 	lds	r24, 0x082E
    3d08:	90 91 2f 08 	lds	r25, 0x082F
	
	if (status_CH[2] < 2)
    3d0c:	20 91 10 20 	lds	r18, 0x2010
    3d10:	22 30       	cpi	r18, 0x02	; 2
    3d12:	58 f4       	brcc	.+22     	; 0x3d2a <__vector_19+0x40>
	{
		period_CH[2] = aValue - oldCount_CH[2];
    3d14:	20 91 af 21 	lds	r18, 0x21AF
    3d18:	30 91 b0 21 	lds	r19, 0x21B0
    3d1c:	ac 01       	movw	r20, r24
    3d1e:	42 1b       	sub	r20, r18
    3d20:	53 0b       	sbc	r21, r19
    3d22:	40 93 b7 21 	sts	0x21B7, r20
    3d26:	50 93 b8 21 	sts	0x21B8, r21
	}
	
	oldCount_CH[2] = aValue;
    3d2a:	80 93 af 21 	sts	0x21AF, r24
    3d2e:	90 93 b0 21 	sts	0x21B0, r25
	
	if (status_CH[2] > 0)
    3d32:	80 91 10 20 	lds	r24, 0x2010
    3d36:	88 23       	and	r24, r24
    3d38:	29 f0       	breq	.+10     	; 0x3d44 <__vector_19+0x5a>
	{
		status_CH[2] --;
    3d3a:	e0 e1       	ldi	r30, 0x10	; 16
    3d3c:	f0 e2       	ldi	r31, 0x20	; 32
    3d3e:	80 81       	ld	r24, Z
    3d40:	81 50       	subi	r24, 0x01	; 1
    3d42:	80 83       	st	Z, r24
	}
}
    3d44:	ff 91       	pop	r31
    3d46:	ef 91       	pop	r30
    3d48:	9f 91       	pop	r25
    3d4a:	8f 91       	pop	r24
    3d4c:	5f 91       	pop	r21
    3d4e:	4f 91       	pop	r20
    3d50:	3f 91       	pop	r19
    3d52:	2f 91       	pop	r18
    3d54:	0f 90       	pop	r0
    3d56:	0f be       	out	0x3f, r0	; 63
    3d58:	0f 90       	pop	r0
    3d5a:	1f 90       	pop	r1
    3d5c:	18 95       	reti

00003d5e <__vector_14>:

ISR(TCC0_OVF_vect)			// Each 524.288 ms
{
    3d5e:	1f 92       	push	r1
    3d60:	0f 92       	push	r0
    3d62:	0f b6       	in	r0, 0x3f	; 63
    3d64:	0f 92       	push	r0
    3d66:	11 24       	eor	r1, r1
    3d68:	2f 93       	push	r18
    3d6a:	3f 93       	push	r19
    3d6c:	8f 93       	push	r24
    3d6e:	9f 93       	push	r25
    3d70:	af 93       	push	r26
    3d72:	bf 93       	push	r27
    3d74:	ef 93       	push	r30
    3d76:	ff 93       	push	r31
	enable_flowMeter = status_flowMeter;	
    3d78:	80 91 12 20 	lds	r24, 0x2012
    3d7c:	80 93 bb 21 	sts	0x21BB, r24
	status_flowMeter = 2;
    3d80:	82 e0       	ldi	r24, 0x02	; 2
    3d82:	80 93 12 20 	sts	0x2012, r24
    3d86:	80 e0       	ldi	r24, 0x00	; 0
    3d88:	90 e0       	ldi	r25, 0x00	; 0
	
	for (uint8_t i = 0;i<4;i++)
	{
		enable_CH[i] = status_CH[i];
		status_CH[i] = 2;
    3d8a:	32 e0       	ldi	r19, 0x02	; 2
	enable_flowMeter = status_flowMeter;	
	status_flowMeter = 2;
	
	for (uint8_t i = 0;i<4;i++)
	{
		enable_CH[i] = status_CH[i];
    3d8c:	fc 01       	movw	r30, r24
    3d8e:	e2 5f       	subi	r30, 0xF2	; 242
    3d90:	ff 4d       	sbci	r31, 0xDF	; 223
    3d92:	20 81       	ld	r18, Z
    3d94:	dc 01       	movw	r26, r24
    3d96:	a6 5f       	subi	r26, 0xF6	; 246
    3d98:	bf 4d       	sbci	r27, 0xDF	; 223
    3d9a:	2c 93       	st	X, r18
		status_CH[i] = 2;
    3d9c:	30 83       	st	Z, r19
    3d9e:	01 96       	adiw	r24, 0x01	; 1
ISR(TCC0_OVF_vect)			// Each 524.288 ms
{
	enable_flowMeter = status_flowMeter;	
	status_flowMeter = 2;
	
	for (uint8_t i = 0;i<4;i++)
    3da0:	84 30       	cpi	r24, 0x04	; 4
    3da2:	91 05       	cpc	r25, r1
    3da4:	99 f7       	brne	.-26     	; 0x3d8c <__vector_14+0x2e>
	{
		enable_CH[i] = status_CH[i];
		status_CH[i] = 2;
	}	
	
	timer524msTick = 1;		// set the tick
    3da6:	81 e0       	ldi	r24, 0x01	; 1
    3da8:	80 93 aa 21 	sts	0x21AA, r24
}
    3dac:	ff 91       	pop	r31
    3dae:	ef 91       	pop	r30
    3db0:	bf 91       	pop	r27
    3db2:	af 91       	pop	r26
    3db4:	9f 91       	pop	r25
    3db6:	8f 91       	pop	r24
    3db8:	3f 91       	pop	r19
    3dba:	2f 91       	pop	r18
    3dbc:	0f 90       	pop	r0
    3dbe:	0f be       	out	0x3f, r0	; 63
    3dc0:	0f 90       	pop	r0
    3dc2:	1f 90       	pop	r1
    3dc4:	18 95       	reti

00003dc6 <__vector_20>:

ISR(TCC1_OVF_vect)			// Each 100.000 ms
{
    3dc6:	1f 92       	push	r1
    3dc8:	0f 92       	push	r0
    3dca:	0f b6       	in	r0, 0x3f	; 63
    3dcc:	0f 92       	push	r0
    3dce:	11 24       	eor	r1, r1
    3dd0:	8f 93       	push	r24
	timer100msTick = 1;		// set the tick
    3dd2:	81 e0       	ldi	r24, 0x01	; 1
    3dd4:	80 93 a9 21 	sts	0x21A9, r24
}
    3dd8:	8f 91       	pop	r24
    3dda:	0f 90       	pop	r0
    3ddc:	0f be       	out	0x3f, r0	; 63
    3dde:	0f 90       	pop	r0
    3de0:	1f 90       	pop	r1
    3de2:	18 95       	reti

00003de4 <timer_setPwm>:

void timer_setPwm(uint8_t channel, uint8_t pwmValue)
{
    3de4:	e8 2f       	mov	r30, r24
	// check if pwmValue is a valid percent number
	if (pwmValue < 101)
    3de6:	65 36       	cpi	r22, 0x65	; 101
    3de8:	08 f0       	brcs	.+2      	; 0x3dec <timer_setPwm+0x8>
    3dea:	45 c0       	rjmp	.+138    	; 0x3e76 <timer_setPwm+0x92>
	{
		uint16_t registerValue = (319*pwmValue)/100;
    3dec:	4f e3       	ldi	r20, 0x3F	; 63
    3dee:	51 e0       	ldi	r21, 0x01	; 1
    3df0:	64 9f       	mul	r22, r20
    3df2:	c0 01       	movw	r24, r0
    3df4:	65 9f       	mul	r22, r21
    3df6:	90 0d       	add	r25, r0
    3df8:	11 24       	eor	r1, r1
    3dfa:	64 e6       	ldi	r22, 0x64	; 100
    3dfc:	70 e0       	ldi	r23, 0x00	; 0
    3dfe:	0e 94 94 1f 	call	0x3f28	; 0x3f28 <__divmodhi4>
				
		switch (channel)					// select the channel
    3e02:	e3 30       	cpi	r30, 0x03	; 3
    3e04:	01 f1       	breq	.+64     	; 0x3e46 <timer_setPwm+0x62>
    3e06:	20 f4       	brcc	.+8      	; 0x3e10 <timer_setPwm+0x2c>
    3e08:	e1 30       	cpi	r30, 0x01	; 1
    3e0a:	99 f0       	breq	.+38     	; 0x3e32 <timer_setPwm+0x4e>
    3e0c:	b8 f4       	brcc	.+46     	; 0x3e3c <timer_setPwm+0x58>
    3e0e:	08 c0       	rjmp	.+16     	; 0x3e20 <timer_setPwm+0x3c>
    3e10:	e5 30       	cpi	r30, 0x05	; 5
    3e12:	19 f1       	breq	.+70     	; 0x3e5a <timer_setPwm+0x76>
    3e14:	e8 f0       	brcs	.+58     	; 0x3e50 <timer_setPwm+0x6c>
    3e16:	e6 30       	cpi	r30, 0x06	; 6
    3e18:	29 f1       	breq	.+74     	; 0x3e64 <timer_setPwm+0x80>
    3e1a:	e7 30       	cpi	r30, 0x07	; 7
    3e1c:	61 f5       	brne	.+88     	; 0x3e76 <timer_setPwm+0x92>
    3e1e:	27 c0       	rjmp	.+78     	; 0x3e6e <timer_setPwm+0x8a>
			case 0:
				#ifdef REV2_1
				R_CH1 = registerValue;			// change the value
				#endif
				#ifdef REV2_2
				R_CH1 = 319 - registerValue;			// change the value
    3e20:	8f e3       	ldi	r24, 0x3F	; 63
    3e22:	91 e0       	ldi	r25, 0x01	; 1
    3e24:	86 1b       	sub	r24, r22
    3e26:	97 0b       	sbc	r25, r23
    3e28:	80 93 3a 0a 	sts	0x0A3A, r24
    3e2c:	90 93 3b 0a 	sts	0x0A3B, r25
				#endif
				break;
    3e30:	08 95       	ret
			case 1:
				R_CH2 = registerValue;
    3e32:	60 93 3c 0a 	sts	0x0A3C, r22
    3e36:	70 93 3d 0a 	sts	0x0A3D, r23
				break;
    3e3a:	08 95       	ret
			case 2:
				R_CH3 = registerValue;
    3e3c:	60 93 3e 0a 	sts	0x0A3E, r22
    3e40:	70 93 3f 0a 	sts	0x0A3F, r23
				break;
    3e44:	08 95       	ret
			case 3:
				R_CH4 = registerValue;
    3e46:	60 93 3e 09 	sts	0x093E, r22
    3e4a:	70 93 3f 09 	sts	0x093F, r23
				break;			
    3e4e:	08 95       	ret
			case LED_RED:
				R_LED_RED = registerValue;		
    3e50:	60 93 3c 09 	sts	0x093C, r22
    3e54:	70 93 3d 09 	sts	0x093D, r23
				break;
    3e58:	08 95       	ret
			case LED_GREEN:
				R_LED_GREEN = registerValue;
    3e5a:	60 93 3a 09 	sts	0x093A, r22
    3e5e:	70 93 3b 09 	sts	0x093B, r23
				break;
    3e62:	08 95       	ret
			case LED_BLUE:
				R_LED_BLUE = registerValue;
    3e64:	60 93 38 09 	sts	0x0938, r22
    3e68:	70 93 39 09 	sts	0x0939, r23
				break;
    3e6c:	08 95       	ret
			case BACKLIGHT:
				R_BACKLIGHT = registerValue;
    3e6e:	60 93 38 0a 	sts	0x0A38, r22
    3e72:	70 93 39 0a 	sts	0x0A39, r23
    3e76:	08 95       	ret

00003e78 <timer_getRpm>:


// Get rotation per minute of a fan.
uint16_t timer_getRpm(uint8_t channel)
{
	if (enable_CH[channel] == 0)	// Channel is enabled.
    3e78:	90 e0       	ldi	r25, 0x00	; 0
    3e7a:	fc 01       	movw	r30, r24
    3e7c:	e6 5f       	subi	r30, 0xF6	; 246
    3e7e:	ff 4d       	sbci	r31, 0xDF	; 223
    3e80:	20 81       	ld	r18, Z
    3e82:	21 11       	cpse	r18, r1
    3e84:	17 c0       	rjmp	.+46     	; 0x3eb4 <timer_getRpm+0x3c>
	{
		uint32_t dummy = (uint32_t)period_CH[channel] * 2;
    3e86:	fc 01       	movw	r30, r24
    3e88:	ee 0f       	add	r30, r30
    3e8a:	ff 1f       	adc	r31, r31
    3e8c:	ed 54       	subi	r30, 0x4D	; 77
    3e8e:	fe 4d       	sbci	r31, 0xDE	; 222
    3e90:	20 81       	ld	r18, Z
    3e92:	31 81       	ldd	r19, Z+1	; 0x01
    3e94:	c9 01       	movw	r24, r18
    3e96:	a0 e0       	ldi	r26, 0x00	; 0
    3e98:	b0 e0       	ldi	r27, 0x00	; 0
    3e9a:	9c 01       	movw	r18, r24
    3e9c:	ad 01       	movw	r20, r26
    3e9e:	22 0f       	add	r18, r18
    3ea0:	33 1f       	adc	r19, r19
    3ea2:	44 1f       	adc	r20, r20
    3ea4:	55 1f       	adc	r21, r21
		return ((uint16_t)(7500000UL / dummy));			
    3ea6:	60 ee       	ldi	r22, 0xE0	; 224
    3ea8:	70 e7       	ldi	r23, 0x70	; 112
    3eaa:	82 e7       	ldi	r24, 0x72	; 114
    3eac:	90 e0       	ldi	r25, 0x00	; 0
    3eae:	0e 94 a8 1f 	call	0x3f50	; 0x3f50 <__udivmodsi4>
    3eb2:	02 c0       	rjmp	.+4      	; 0x3eb8 <timer_getRpm+0x40>
	} 
	else							// Channel is disabled.
	{
		return 0;
    3eb4:	20 e0       	ldi	r18, 0x00	; 0
    3eb6:	30 e0       	ldi	r19, 0x00	; 0
	}
}
    3eb8:	82 2f       	mov	r24, r18
    3eba:	93 2f       	mov	r25, r19
    3ebc:	08 95       	ret

00003ebe <timer_getLH>:

// Get liters per hour of the flow meter.
uint16_t timer_getLH(void)
{
	if (enable_flowMeter == 0)		// Flow meter is enabled
    3ebe:	80 91 bb 21 	lds	r24, 0x21BB
    3ec2:	81 11       	cpse	r24, r1
    3ec4:	13 c0       	rjmp	.+38     	; 0x3eec <timer_getLH+0x2e>
	{
		uint32_t dummy = (uint32_t)period_flowMeter * impulsePerLiter;
    3ec6:	a0 91 be 21 	lds	r26, 0x21BE
    3eca:	b0 91 bf 21 	lds	r27, 0x21BF
    3ece:	20 91 08 20 	lds	r18, 0x2008
    3ed2:	30 91 09 20 	lds	r19, 0x2009
    3ed6:	0e 94 d0 1f 	call	0x3fa0	; 0x3fa0 <__umulhisi3>
    3eda:	9b 01       	movw	r18, r22
    3edc:	ac 01       	movw	r20, r24
		return (uint16_t)(450000000UL / dummy);		
    3ede:	60 e8       	ldi	r22, 0x80	; 128
    3ee0:	74 e7       	ldi	r23, 0x74	; 116
    3ee2:	82 ed       	ldi	r24, 0xD2	; 210
    3ee4:	9a e1       	ldi	r25, 0x1A	; 26
    3ee6:	0e 94 a8 1f 	call	0x3f50	; 0x3f50 <__udivmodsi4>
    3eea:	02 c0       	rjmp	.+4      	; 0x3ef0 <timer_getLH+0x32>
	} 
	else
	{
		return 0;
    3eec:	20 e0       	ldi	r18, 0x00	; 0
    3eee:	30 e0       	ldi	r19, 0x00	; 0
	}
}
    3ef0:	82 2f       	mov	r24, r18
    3ef2:	93 2f       	mov	r25, r19
    3ef4:	08 95       	ret

00003ef6 <timer_setImpulsePerLiter>:

void timer_setImpulsePerLiter(uint16_t aValue)
{
	impulsePerLiter = aValue;	
    3ef6:	80 93 08 20 	sts	0x2008, r24
    3efa:	90 93 09 20 	sts	0x2009, r25
    3efe:	08 95       	ret

00003f00 <timer_524ms>:
}


uint8_t timer_524ms(void)
{
	if (timer524msTick)
    3f00:	80 91 aa 21 	lds	r24, 0x21AA
    3f04:	88 23       	and	r24, r24
    3f06:	21 f0       	breq	.+8      	; 0x3f10 <timer_524ms+0x10>
	{
		timer524msTick = 0;
    3f08:	10 92 aa 21 	sts	0x21AA, r1
		return 1;
    3f0c:	81 e0       	ldi	r24, 0x01	; 1
    3f0e:	08 95       	ret
	} 
	else
	{
		return 0;
    3f10:	80 e0       	ldi	r24, 0x00	; 0
	}	
}
    3f12:	08 95       	ret

00003f14 <timer_100ms>:


uint8_t timer_100ms(void)
{
	if (timer100msTick)
    3f14:	80 91 a9 21 	lds	r24, 0x21A9
    3f18:	88 23       	and	r24, r24
    3f1a:	21 f0       	breq	.+8      	; 0x3f24 <timer_100ms+0x10>
	{
		timer100msTick = 0;
    3f1c:	10 92 a9 21 	sts	0x21A9, r1
		return 1;
    3f20:	81 e0       	ldi	r24, 0x01	; 1
    3f22:	08 95       	ret
	}
	else
	{
		return 0;
    3f24:	80 e0       	ldi	r24, 0x00	; 0
	}
    3f26:	08 95       	ret

00003f28 <__divmodhi4>:
    3f28:	97 fb       	bst	r25, 7
    3f2a:	07 2e       	mov	r0, r23
    3f2c:	16 f4       	brtc	.+4      	; 0x3f32 <__divmodhi4+0xa>
    3f2e:	00 94       	com	r0
    3f30:	07 d0       	rcall	.+14     	; 0x3f40 <__divmodhi4_neg1>
    3f32:	77 fd       	sbrc	r23, 7
    3f34:	09 d0       	rcall	.+18     	; 0x3f48 <__divmodhi4_neg2>
    3f36:	0e 94 dc 1f 	call	0x3fb8	; 0x3fb8 <__udivmodhi4>
    3f3a:	07 fc       	sbrc	r0, 7
    3f3c:	05 d0       	rcall	.+10     	; 0x3f48 <__divmodhi4_neg2>
    3f3e:	3e f4       	brtc	.+14     	; 0x3f4e <__divmodhi4_exit>

00003f40 <__divmodhi4_neg1>:
    3f40:	90 95       	com	r25
    3f42:	81 95       	neg	r24
    3f44:	9f 4f       	sbci	r25, 0xFF	; 255
    3f46:	08 95       	ret

00003f48 <__divmodhi4_neg2>:
    3f48:	70 95       	com	r23
    3f4a:	61 95       	neg	r22
    3f4c:	7f 4f       	sbci	r23, 0xFF	; 255

00003f4e <__divmodhi4_exit>:
    3f4e:	08 95       	ret

00003f50 <__udivmodsi4>:
    3f50:	a1 e2       	ldi	r26, 0x21	; 33
    3f52:	1a 2e       	mov	r1, r26
    3f54:	aa 1b       	sub	r26, r26
    3f56:	bb 1b       	sub	r27, r27
    3f58:	fd 01       	movw	r30, r26
    3f5a:	0d c0       	rjmp	.+26     	; 0x3f76 <__udivmodsi4_ep>

00003f5c <__udivmodsi4_loop>:
    3f5c:	aa 1f       	adc	r26, r26
    3f5e:	bb 1f       	adc	r27, r27
    3f60:	ee 1f       	adc	r30, r30
    3f62:	ff 1f       	adc	r31, r31
    3f64:	a2 17       	cp	r26, r18
    3f66:	b3 07       	cpc	r27, r19
    3f68:	e4 07       	cpc	r30, r20
    3f6a:	f5 07       	cpc	r31, r21
    3f6c:	20 f0       	brcs	.+8      	; 0x3f76 <__udivmodsi4_ep>
    3f6e:	a2 1b       	sub	r26, r18
    3f70:	b3 0b       	sbc	r27, r19
    3f72:	e4 0b       	sbc	r30, r20
    3f74:	f5 0b       	sbc	r31, r21

00003f76 <__udivmodsi4_ep>:
    3f76:	66 1f       	adc	r22, r22
    3f78:	77 1f       	adc	r23, r23
    3f7a:	88 1f       	adc	r24, r24
    3f7c:	99 1f       	adc	r25, r25
    3f7e:	1a 94       	dec	r1
    3f80:	69 f7       	brne	.-38     	; 0x3f5c <__udivmodsi4_loop>
    3f82:	60 95       	com	r22
    3f84:	70 95       	com	r23
    3f86:	80 95       	com	r24
    3f88:	90 95       	com	r25
    3f8a:	9b 01       	movw	r18, r22
    3f8c:	ac 01       	movw	r20, r24
    3f8e:	bd 01       	movw	r22, r26
    3f90:	cf 01       	movw	r24, r30
    3f92:	08 95       	ret

00003f94 <__tablejump2__>:
    3f94:	ee 0f       	add	r30, r30
    3f96:	ff 1f       	adc	r31, r31

00003f98 <__tablejump__>:
    3f98:	05 90       	lpm	r0, Z+
    3f9a:	f4 91       	lpm	r31, Z
    3f9c:	e0 2d       	mov	r30, r0
    3f9e:	09 94       	ijmp

00003fa0 <__umulhisi3>:
    3fa0:	a2 9f       	mul	r26, r18
    3fa2:	b0 01       	movw	r22, r0
    3fa4:	b3 9f       	mul	r27, r19
    3fa6:	c0 01       	movw	r24, r0
    3fa8:	a3 9f       	mul	r26, r19
    3faa:	01 d0       	rcall	.+2      	; 0x3fae <__umulhisi3+0xe>
    3fac:	b2 9f       	mul	r27, r18
    3fae:	70 0d       	add	r23, r0
    3fb0:	81 1d       	adc	r24, r1
    3fb2:	11 24       	eor	r1, r1
    3fb4:	91 1d       	adc	r25, r1
    3fb6:	08 95       	ret

00003fb8 <__udivmodhi4>:
    3fb8:	aa 1b       	sub	r26, r26
    3fba:	bb 1b       	sub	r27, r27
    3fbc:	51 e1       	ldi	r21, 0x11	; 17
    3fbe:	07 c0       	rjmp	.+14     	; 0x3fce <__udivmodhi4_ep>

00003fc0 <__udivmodhi4_loop>:
    3fc0:	aa 1f       	adc	r26, r26
    3fc2:	bb 1f       	adc	r27, r27
    3fc4:	a6 17       	cp	r26, r22
    3fc6:	b7 07       	cpc	r27, r23
    3fc8:	10 f0       	brcs	.+4      	; 0x3fce <__udivmodhi4_ep>
    3fca:	a6 1b       	sub	r26, r22
    3fcc:	b7 0b       	sbc	r27, r23

00003fce <__udivmodhi4_ep>:
    3fce:	88 1f       	adc	r24, r24
    3fd0:	99 1f       	adc	r25, r25
    3fd2:	5a 95       	dec	r21
    3fd4:	a9 f7       	brne	.-22     	; 0x3fc0 <__udivmodhi4_loop>
    3fd6:	80 95       	com	r24
    3fd8:	90 95       	com	r25
    3fda:	bc 01       	movw	r22, r24
    3fdc:	cd 01       	movw	r24, r26
    3fde:	08 95       	ret

00003fe0 <itoa>:
    3fe0:	fb 01       	movw	r30, r22
    3fe2:	9f 01       	movw	r18, r30
    3fe4:	e8 94       	clt
    3fe6:	42 30       	cpi	r20, 0x02	; 2
    3fe8:	c4 f0       	brlt	.+48     	; 0x401a <itoa+0x3a>
    3fea:	45 32       	cpi	r20, 0x25	; 37
    3fec:	b4 f4       	brge	.+44     	; 0x401a <itoa+0x3a>
    3fee:	4a 30       	cpi	r20, 0x0A	; 10
    3ff0:	29 f4       	brne	.+10     	; 0x3ffc <itoa+0x1c>
    3ff2:	97 fb       	bst	r25, 7
    3ff4:	1e f4       	brtc	.+6      	; 0x3ffc <itoa+0x1c>
    3ff6:	90 95       	com	r25
    3ff8:	81 95       	neg	r24
    3ffa:	9f 4f       	sbci	r25, 0xFF	; 255
    3ffc:	64 2f       	mov	r22, r20
    3ffe:	77 27       	eor	r23, r23
    4000:	0e 94 dc 1f 	call	0x3fb8	; 0x3fb8 <__udivmodhi4>
    4004:	80 5d       	subi	r24, 0xD0	; 208
    4006:	8a 33       	cpi	r24, 0x3A	; 58
    4008:	0c f0       	brlt	.+2      	; 0x400c <itoa+0x2c>
    400a:	89 5d       	subi	r24, 0xD9	; 217
    400c:	81 93       	st	Z+, r24
    400e:	cb 01       	movw	r24, r22
    4010:	00 97       	sbiw	r24, 0x00	; 0
    4012:	a1 f7       	brne	.-24     	; 0x3ffc <itoa+0x1c>
    4014:	16 f4       	brtc	.+4      	; 0x401a <itoa+0x3a>
    4016:	5d e2       	ldi	r21, 0x2D	; 45
    4018:	51 93       	st	Z+, r21
    401a:	10 82       	st	Z, r1
    401c:	c9 01       	movw	r24, r18
    401e:	0c 94 74 20 	jmp	0x40e8	; 0x40e8 <strrev>

00004022 <__eerd_block_x32a4>:
    4022:	e0 ec       	ldi	r30, 0xC0	; 192
    4024:	f1 e0       	ldi	r31, 0x01	; 1
    4026:	a7 85       	ldd	r26, Z+15	; 0x0f
    4028:	a7 fd       	sbrc	r26, 7
    402a:	fd cf       	rjmp	.-6      	; 0x4026 <__eerd_block_x32a4+0x4>
    402c:	a4 85       	ldd	r26, Z+12	; 0x0c
    402e:	a8 60       	ori	r26, 0x08	; 8
    4030:	a4 87       	std	Z+12, r26	; 0x0c
    4032:	60 50       	subi	r22, 0x00	; 0
    4034:	70 4f       	sbci	r23, 0xF0	; 240
    4036:	0c 94 6b 20 	jmp	0x40d6	; 0x40d6 <memcpy>

0000403a <__eerd_word_x32a4>:
    403a:	0e 94 5f 20 	call	0x40be	; 0x40be <eeprom_mapen>
    403e:	80 81       	ld	r24, Z
    4040:	91 81       	ldd	r25, Z+1	; 0x01
    4042:	08 95       	ret

00004044 <__eeupd_byte_x32a4>:
    4044:	26 2f       	mov	r18, r22

00004046 <__eeupd_r18_x32a4>:
    4046:	0e 94 5f 20 	call	0x40be	; 0x40be <eeprom_mapen>
    404a:	00 80       	ld	r0, Z
    404c:	02 16       	cp	r0, r18
    404e:	19 f0       	breq	.+6      	; 0x4056 <__eeupd_r18_x32a4+0x10>
    4050:	0e 94 34 20 	call	0x4068	; 0x4068 <__eewr_r18_x32a4>
    4054:	01 97       	sbiw	r24, 0x01	; 1
    4056:	01 97       	sbiw	r24, 0x01	; 1
    4058:	08 95       	ret

0000405a <__eeupd_word_x32a4>:
    405a:	01 96       	adiw	r24, 0x01	; 1
    405c:	27 2f       	mov	r18, r23
    405e:	0e 94 23 20 	call	0x4046	; 0x4046 <__eeupd_r18_x32a4>
    4062:	0c 94 22 20 	jmp	0x4044	; 0x4044 <__eeupd_byte_x32a4>

00004066 <__eewr_byte_x32a4>:
    4066:	26 2f       	mov	r18, r22

00004068 <__eewr_r18_x32a4>:
    4068:	e0 ec       	ldi	r30, 0xC0	; 192
    406a:	f1 e0       	ldi	r31, 0x01	; 1
    406c:	37 85       	ldd	r19, Z+15	; 0x0f
    406e:	37 fd       	sbrc	r19, 7
    4070:	fd cf       	rjmp	.-6      	; 0x406c <__eewr_r18_x32a4+0x4>
    4072:	34 85       	ldd	r19, Z+12	; 0x0c
    4074:	37 7f       	andi	r19, 0xF7	; 247
    4076:	34 87       	std	Z+12, r19	; 0x0c
    4078:	37 85       	ldd	r19, Z+15	; 0x0f
    407a:	31 ff       	sbrs	r19, 1
    407c:	09 c0       	rjmp	.+18     	; 0x4090 <__eewr_r18_x32a4+0x28>
    407e:	36 e3       	ldi	r19, 0x36	; 54
    4080:	32 87       	std	Z+10, r19	; 0x0a
    4082:	38 ed       	ldi	r19, 0xD8	; 216
    4084:	34 bf       	out	0x34, r19	; 52
    4086:	31 e0       	ldi	r19, 0x01	; 1
    4088:	33 87       	std	Z+11, r19	; 0x0b
    408a:	37 85       	ldd	r19, Z+15	; 0x0f
    408c:	37 fd       	sbrc	r19, 7
    408e:	fd cf       	rjmp	.-6      	; 0x408a <__eewr_r18_x32a4+0x22>
    4090:	33 e3       	ldi	r19, 0x33	; 51
    4092:	32 87       	std	Z+10, r19	; 0x0a
    4094:	80 83       	st	Z, r24
    4096:	91 83       	std	Z+1, r25	; 0x01
    4098:	12 82       	std	Z+2, r1	; 0x02
    409a:	24 83       	std	Z+4, r18	; 0x04
    409c:	25 e3       	ldi	r18, 0x35	; 53
    409e:	22 87       	std	Z+10, r18	; 0x0a
    40a0:	28 ed       	ldi	r18, 0xD8	; 216
    40a2:	31 e0       	ldi	r19, 0x01	; 1
    40a4:	24 bf       	out	0x34, r18	; 52
    40a6:	33 87       	std	Z+11, r19	; 0x0b
    40a8:	01 96       	adiw	r24, 0x01	; 1
    40aa:	08 95       	ret

000040ac <__eewr_word_x32a4>:
    40ac:	0e 94 33 20 	call	0x4066	; 0x4066 <__eewr_byte_x32a4>
    40b0:	27 2f       	mov	r18, r23
    40b2:	0c 94 34 20 	jmp	0x4068	; 0x4068 <__eewr_r18_x32a4>

000040b6 <__eerd_byte_x32a4u>:
    40b6:	03 d0       	rcall	.+6      	; 0x40be <eeprom_mapen>
    40b8:	80 81       	ld	r24, Z
    40ba:	99 27       	eor	r25, r25
    40bc:	08 95       	ret

000040be <eeprom_mapen>:
    40be:	e0 ec       	ldi	r30, 0xC0	; 192
    40c0:	f1 e0       	ldi	r31, 0x01	; 1
    40c2:	37 85       	ldd	r19, Z+15	; 0x0f
    40c4:	37 fd       	sbrc	r19, 7
    40c6:	fd cf       	rjmp	.-6      	; 0x40c2 <eeprom_mapen+0x4>
    40c8:	34 85       	ldd	r19, Z+12	; 0x0c
    40ca:	38 60       	ori	r19, 0x08	; 8
    40cc:	34 87       	std	Z+12, r19	; 0x0c
    40ce:	fc 01       	movw	r30, r24
    40d0:	e0 50       	subi	r30, 0x00	; 0
    40d2:	f0 4f       	sbci	r31, 0xF0	; 240
    40d4:	08 95       	ret

000040d6 <memcpy>:
    40d6:	fb 01       	movw	r30, r22
    40d8:	dc 01       	movw	r26, r24
    40da:	02 c0       	rjmp	.+4      	; 0x40e0 <memcpy+0xa>
    40dc:	01 90       	ld	r0, Z+
    40de:	0d 92       	st	X+, r0
    40e0:	41 50       	subi	r20, 0x01	; 1
    40e2:	50 40       	sbci	r21, 0x00	; 0
    40e4:	d8 f7       	brcc	.-10     	; 0x40dc <memcpy+0x6>
    40e6:	08 95       	ret

000040e8 <strrev>:
    40e8:	dc 01       	movw	r26, r24
    40ea:	fc 01       	movw	r30, r24
    40ec:	67 2f       	mov	r22, r23
    40ee:	71 91       	ld	r23, Z+
    40f0:	77 23       	and	r23, r23
    40f2:	e1 f7       	brne	.-8      	; 0x40ec <strrev+0x4>
    40f4:	32 97       	sbiw	r30, 0x02	; 2
    40f6:	04 c0       	rjmp	.+8      	; 0x4100 <strrev+0x18>
    40f8:	7c 91       	ld	r23, X
    40fa:	6d 93       	st	X+, r22
    40fc:	70 83       	st	Z, r23
    40fe:	62 91       	ld	r22, -Z
    4100:	ae 17       	cp	r26, r30
    4102:	bf 07       	cpc	r27, r31
    4104:	c8 f3       	brcs	.-14     	; 0x40f8 <strrev+0x10>
    4106:	08 95       	ret

00004108 <_exit>:
    4108:	f8 94       	cli

0000410a <__stop_program>:
    410a:	ff cf       	rjmp	.-2      	; 0x410a <__stop_program>
